	.file	"Render.cxx"
	.section	.rodata
	.align 32
	.type	_ZN12DitherMatrixL7patternE, @object
	.size	_ZN12DitherMatrixL7patternE, 512
_ZN12DitherMatrixL7patternE:
	.long	1
	.long	1
	.long	1
	.long	1
	.long	1
	.long	1
	.long	1
	.long	1
	.long	1
	.long	1
	.long	1
	.long	1
	.long	1
	.long	1
	.long	1
	.long	1
	.long	1
	.long	0
	.long	1
	.long	0
	.long	0
	.long	1
	.long	0
	.long	1
	.long	1
	.long	0
	.long	1
	.long	0
	.long	0
	.long	1
	.long	0
	.long	1
	.long	1
	.long	0
	.long	1
	.long	0
	.long	0
	.long	0
	.long	0
	.long	0
	.long	1
	.long	0
	.long	1
	.long	0
	.long	0
	.long	0
	.long	0
	.long	0
	.long	1
	.long	0
	.long	0
	.long	0
	.long	0
	.long	0
	.long	1
	.long	0
	.long	1
	.long	0
	.long	0
	.long	0
	.long	0
	.long	0
	.long	1
	.long	0
	.long	1
	.long	1
	.long	0
	.long	0
	.long	1
	.long	1
	.long	0
	.long	0
	.long	0
	.long	0
	.long	1
	.long	1
	.long	0
	.long	0
	.long	1
	.long	1
	.long	1
	.long	1
	.long	1
	.long	1
	.long	0
	.long	0
	.long	0
	.long	0
	.long	1
	.long	1
	.long	1
	.long	1
	.long	0
	.long	0
	.long	0
	.long	0
	.long	1
	.long	0
	.long	1
	.long	0
	.long	1
	.long	0
	.long	1
	.long	0
	.long	1
	.long	0
	.long	1
	.long	0
	.long	1
	.long	0
	.long	1
	.long	0
	.long	0
	.long	1
	.long	0
	.long	0
	.long	1
	.long	1
	.long	1
	.long	0
	.long	0
	.long	1
	.long	0
	.long	0
	.long	0
	.long	0
	.long	0
	.long	0
	.align 32
	.type	_ZN12FilterMatrixL8identityE, @object
	.size	_ZN12FilterMatrixL8identityE, 36
_ZN12FilterMatrixL8identityE:
	.long	0
	.long	0
	.long	0
	.long	0
	.long	1
	.long	0
	.long	0
	.long	0
	.long	0
	.align 32
	.type	_ZN12FilterMatrixL4blurE, @object
	.size	_ZN12FilterMatrixL4blurE, 36
_ZN12FilterMatrixL4blurE:
	.long	1
	.long	1
	.long	1
	.long	1
	.long	1
	.long	1
	.long	1
	.long	1
	.long	1
	.align 32
	.type	_ZN12FilterMatrixL7sharpenE, @object
	.size	_ZN12FilterMatrixL7sharpenE, 36
_ZN12FilterMatrixL7sharpenE:
	.long	0
	.long	-1
	.long	0
	.long	-1
	.long	5
	.long	-1
	.long	0
	.long	-1
	.long	0
	.align 32
	.type	_ZN12FilterMatrixL8gaussianE, @object
	.size	_ZN12FilterMatrixL8gaussianE, 36
_ZN12FilterMatrixL8gaussianE:
	.long	1
	.long	2
	.long	1
	.long	2
	.long	4
	.long	2
	.long	1
	.long	2
	.long	1
	.align 32
	.type	_ZN12FilterMatrixL4edgeE, @object
	.size	_ZN12FilterMatrixL4edgeE, 36
_ZN12FilterMatrixL4edgeE:
	.long	-1
	.long	-1
	.long	-1
	.long	-1
	.long	8
	.long	-1
	.long	-1
	.long	-1
	.long	-1
	.align 32
	.type	_ZN12FilterMatrixL6embossE, @object
	.size	_ZN12FilterMatrixL6embossE, 36
_ZN12FilterMatrixL6embossE:
	.long	-2
	.long	-1
	.long	0
	.long	-1
	.long	1
	.long	1
	.long	0
	.long	1
	.long	2
	.align 32
	.type	_ZN12FilterMatrixL14emboss_reverseE, @object
	.size	_ZN12FilterMatrixL14emboss_reverseE, 36
_ZN12FilterMatrixL14emboss_reverseE:
	.long	2
	.long	1
	.long	0
	.long	1
	.long	1
	.long	-1
	.long	0
	.long	-1
	.long	-2
	.align 32
	.type	_ZN12FilterMatrixL4testE, @object
	.size	_ZN12FilterMatrixL4testE, 36
_ZN12FilterMatrixL4testE:
	.long	0
	.long	0
	.long	0
	.long	0
	.long	1
	.long	0
	.long	0
	.long	0
	.long	0
	.align 4
	.type	_ZL15FL_ALIGN_CENTER, @object
	.size	_ZL15FL_ALIGN_CENTER, 4
_ZL15FL_ALIGN_CENTER:
	.zero	4
	.align 4
	.type	_ZL12FL_ALIGN_TOP, @object
	.size	_ZL12FL_ALIGN_TOP, 4
_ZL12FL_ALIGN_TOP:
	.long	1
	.align 4
	.type	_ZL15FL_ALIGN_BOTTOM, @object
	.size	_ZL15FL_ALIGN_BOTTOM, 4
_ZL15FL_ALIGN_BOTTOM:
	.long	2
	.align 4
	.type	_ZL13FL_ALIGN_LEFT, @object
	.size	_ZL13FL_ALIGN_LEFT, 4
_ZL13FL_ALIGN_LEFT:
	.long	4
	.align 4
	.type	_ZL14FL_ALIGN_RIGHT, @object
	.size	_ZL14FL_ALIGN_RIGHT, 4
_ZL14FL_ALIGN_RIGHT:
	.long	8
	.align 4
	.type	_ZL15FL_ALIGN_INSIDE, @object
	.size	_ZL15FL_ALIGN_INSIDE, 4
_ZL15FL_ALIGN_INSIDE:
	.long	16
	.align 4
	.type	_ZL24FL_ALIGN_TEXT_OVER_IMAGE, @object
	.size	_ZL24FL_ALIGN_TEXT_OVER_IMAGE, 4
_ZL24FL_ALIGN_TEXT_OVER_IMAGE:
	.long	32
	.align 4
	.type	_ZL24FL_ALIGN_IMAGE_OVER_TEXT, @object
	.size	_ZL24FL_ALIGN_IMAGE_OVER_TEXT, 4
_ZL24FL_ALIGN_IMAGE_OVER_TEXT:
	.zero	4
	.align 4
	.type	_ZL13FL_ALIGN_CLIP, @object
	.size	_ZL13FL_ALIGN_CLIP, 4
_ZL13FL_ALIGN_CLIP:
	.long	64
	.align 4
	.type	_ZL13FL_ALIGN_WRAP, @object
	.size	_ZL13FL_ALIGN_WRAP, 4
_ZL13FL_ALIGN_WRAP:
	.long	128
	.align 4
	.type	_ZL27FL_ALIGN_IMAGE_NEXT_TO_TEXT, @object
	.size	_ZL27FL_ALIGN_IMAGE_NEXT_TO_TEXT, 4
_ZL27FL_ALIGN_IMAGE_NEXT_TO_TEXT:
	.long	256
	.align 4
	.type	_ZL27FL_ALIGN_TEXT_NEXT_TO_IMAGE, @object
	.size	_ZL27FL_ALIGN_TEXT_NEXT_TO_IMAGE, 4
_ZL27FL_ALIGN_TEXT_NEXT_TO_IMAGE:
	.long	288
	.align 4
	.type	_ZL23FL_ALIGN_IMAGE_BACKDROP, @object
	.size	_ZL23FL_ALIGN_IMAGE_BACKDROP, 4
_ZL23FL_ALIGN_IMAGE_BACKDROP:
	.long	512
	.align 4
	.type	_ZL17FL_ALIGN_TOP_LEFT, @object
	.size	_ZL17FL_ALIGN_TOP_LEFT, 4
_ZL17FL_ALIGN_TOP_LEFT:
	.long	5
	.align 4
	.type	_ZL18FL_ALIGN_TOP_RIGHT, @object
	.size	_ZL18FL_ALIGN_TOP_RIGHT, 4
_ZL18FL_ALIGN_TOP_RIGHT:
	.long	9
	.align 4
	.type	_ZL20FL_ALIGN_BOTTOM_LEFT, @object
	.size	_ZL20FL_ALIGN_BOTTOM_LEFT, 4
_ZL20FL_ALIGN_BOTTOM_LEFT:
	.long	6
	.align 4
	.type	_ZL21FL_ALIGN_BOTTOM_RIGHT, @object
	.size	_ZL21FL_ALIGN_BOTTOM_RIGHT, 4
_ZL21FL_ALIGN_BOTTOM_RIGHT:
	.long	10
	.align 4
	.type	_ZL17FL_ALIGN_LEFT_TOP, @object
	.size	_ZL17FL_ALIGN_LEFT_TOP, 4
_ZL17FL_ALIGN_LEFT_TOP:
	.long	7
	.align 4
	.type	_ZL18FL_ALIGN_RIGHT_TOP, @object
	.size	_ZL18FL_ALIGN_RIGHT_TOP, 4
_ZL18FL_ALIGN_RIGHT_TOP:
	.long	11
	.align 4
	.type	_ZL20FL_ALIGN_LEFT_BOTTOM, @object
	.size	_ZL20FL_ALIGN_LEFT_BOTTOM, 4
_ZL20FL_ALIGN_LEFT_BOTTOM:
	.long	13
	.align 4
	.type	_ZL21FL_ALIGN_RIGHT_BOTTOM, @object
	.size	_ZL21FL_ALIGN_RIGHT_BOTTOM, 4
_ZL21FL_ALIGN_RIGHT_BOTTOM:
	.long	14
	.align 4
	.type	_ZL15FL_ALIGN_NOWRAP, @object
	.size	_ZL15FL_ALIGN_NOWRAP, 4
_ZL15FL_ALIGN_NOWRAP:
	.zero	4
	.align 4
	.type	_ZL22FL_ALIGN_POSITION_MASK, @object
	.size	_ZL22FL_ALIGN_POSITION_MASK, 4
_ZL22FL_ALIGN_POSITION_MASK:
	.long	15
	.align 4
	.type	_ZL19FL_ALIGN_IMAGE_MASK, @object
	.size	_ZL19FL_ALIGN_IMAGE_MASK, 4
_ZL19FL_ALIGN_IMAGE_MASK:
	.long	800
	.align 4
	.type	_ZL12FL_HELVETICA, @object
	.size	_ZL12FL_HELVETICA, 4
_ZL12FL_HELVETICA:
	.zero	4
	.align 4
	.type	_ZL17FL_HELVETICA_BOLD, @object
	.size	_ZL17FL_HELVETICA_BOLD, 4
_ZL17FL_HELVETICA_BOLD:
	.long	1
	.align 4
	.type	_ZL19FL_HELVETICA_ITALIC, @object
	.size	_ZL19FL_HELVETICA_ITALIC, 4
_ZL19FL_HELVETICA_ITALIC:
	.long	2
	.align 4
	.type	_ZL24FL_HELVETICA_BOLD_ITALIC, @object
	.size	_ZL24FL_HELVETICA_BOLD_ITALIC, 4
_ZL24FL_HELVETICA_BOLD_ITALIC:
	.long	3
	.align 4
	.type	_ZL10FL_COURIER, @object
	.size	_ZL10FL_COURIER, 4
_ZL10FL_COURIER:
	.long	4
	.align 4
	.type	_ZL15FL_COURIER_BOLD, @object
	.size	_ZL15FL_COURIER_BOLD, 4
_ZL15FL_COURIER_BOLD:
	.long	5
	.align 4
	.type	_ZL17FL_COURIER_ITALIC, @object
	.size	_ZL17FL_COURIER_ITALIC, 4
_ZL17FL_COURIER_ITALIC:
	.long	6
	.align 4
	.type	_ZL22FL_COURIER_BOLD_ITALIC, @object
	.size	_ZL22FL_COURIER_BOLD_ITALIC, 4
_ZL22FL_COURIER_BOLD_ITALIC:
	.long	7
	.align 4
	.type	_ZL8FL_TIMES, @object
	.size	_ZL8FL_TIMES, 4
_ZL8FL_TIMES:
	.long	8
	.align 4
	.type	_ZL13FL_TIMES_BOLD, @object
	.size	_ZL13FL_TIMES_BOLD, 4
_ZL13FL_TIMES_BOLD:
	.long	9
	.align 4
	.type	_ZL15FL_TIMES_ITALIC, @object
	.size	_ZL15FL_TIMES_ITALIC, 4
_ZL15FL_TIMES_ITALIC:
	.long	10
	.align 4
	.type	_ZL20FL_TIMES_BOLD_ITALIC, @object
	.size	_ZL20FL_TIMES_BOLD_ITALIC, 4
_ZL20FL_TIMES_BOLD_ITALIC:
	.long	11
	.align 4
	.type	_ZL9FL_SYMBOL, @object
	.size	_ZL9FL_SYMBOL, 4
_ZL9FL_SYMBOL:
	.long	12
	.align 4
	.type	_ZL9FL_SCREEN, @object
	.size	_ZL9FL_SCREEN, 4
_ZL9FL_SCREEN:
	.long	13
	.align 4
	.type	_ZL14FL_SCREEN_BOLD, @object
	.size	_ZL14FL_SCREEN_BOLD, 4
_ZL14FL_SCREEN_BOLD:
	.long	14
	.align 4
	.type	_ZL16FL_ZAPF_DINGBATS, @object
	.size	_ZL16FL_ZAPF_DINGBATS, 4
_ZL16FL_ZAPF_DINGBATS:
	.long	15
	.align 4
	.type	_ZL12FL_FREE_FONT, @object
	.size	_ZL12FL_FREE_FONT, 4
_ZL12FL_FREE_FONT:
	.long	16
	.align 4
	.type	_ZL7FL_BOLD, @object
	.size	_ZL7FL_BOLD, 4
_ZL7FL_BOLD:
	.long	1
	.align 4
	.type	_ZL9FL_ITALIC, @object
	.size	_ZL9FL_ITALIC, 4
_ZL9FL_ITALIC:
	.long	2
	.align 4
	.type	_ZL14FL_BOLD_ITALIC, @object
	.size	_ZL14FL_BOLD_ITALIC, 4
_ZL14FL_BOLD_ITALIC:
	.long	3
	.align 4
	.type	_ZL19FL_FOREGROUND_COLOR, @object
	.size	_ZL19FL_FOREGROUND_COLOR, 4
_ZL19FL_FOREGROUND_COLOR:
	.zero	4
	.align 4
	.type	_ZL20FL_BACKGROUND2_COLOR, @object
	.size	_ZL20FL_BACKGROUND2_COLOR, 4
_ZL20FL_BACKGROUND2_COLOR:
	.long	7
	.align 4
	.type	_ZL17FL_INACTIVE_COLOR, @object
	.size	_ZL17FL_INACTIVE_COLOR, 4
_ZL17FL_INACTIVE_COLOR:
	.long	8
	.align 4
	.type	_ZL18FL_SELECTION_COLOR, @object
	.size	_ZL18FL_SELECTION_COLOR, 4
_ZL18FL_SELECTION_COLOR:
	.long	15
	.align 4
	.type	_ZL8FL_GRAY0, @object
	.size	_ZL8FL_GRAY0, 4
_ZL8FL_GRAY0:
	.long	32
	.align 4
	.type	_ZL8FL_DARK3, @object
	.size	_ZL8FL_DARK3, 4
_ZL8FL_DARK3:
	.long	39
	.align 4
	.type	_ZL8FL_DARK2, @object
	.size	_ZL8FL_DARK2, 4
_ZL8FL_DARK2:
	.long	45
	.align 4
	.type	_ZL8FL_DARK1, @object
	.size	_ZL8FL_DARK1, 4
_ZL8FL_DARK1:
	.long	47
	.align 4
	.type	_ZL19FL_BACKGROUND_COLOR, @object
	.size	_ZL19FL_BACKGROUND_COLOR, 4
_ZL19FL_BACKGROUND_COLOR:
	.long	49
	.align 4
	.type	_ZL9FL_LIGHT1, @object
	.size	_ZL9FL_LIGHT1, 4
_ZL9FL_LIGHT1:
	.long	50
	.align 4
	.type	_ZL9FL_LIGHT2, @object
	.size	_ZL9FL_LIGHT2, 4
_ZL9FL_LIGHT2:
	.long	52
	.align 4
	.type	_ZL9FL_LIGHT3, @object
	.size	_ZL9FL_LIGHT3, 4
_ZL9FL_LIGHT3:
	.long	54
	.align 4
	.type	_ZL8FL_BLACK, @object
	.size	_ZL8FL_BLACK, 4
_ZL8FL_BLACK:
	.long	56
	.align 4
	.type	_ZL6FL_RED, @object
	.size	_ZL6FL_RED, 4
_ZL6FL_RED:
	.long	88
	.align 4
	.type	_ZL8FL_GREEN, @object
	.size	_ZL8FL_GREEN, 4
_ZL8FL_GREEN:
	.long	63
	.align 4
	.type	_ZL9FL_YELLOW, @object
	.size	_ZL9FL_YELLOW, 4
_ZL9FL_YELLOW:
	.long	95
	.align 4
	.type	_ZL7FL_BLUE, @object
	.size	_ZL7FL_BLUE, 4
_ZL7FL_BLUE:
	.long	216
	.align 4
	.type	_ZL10FL_MAGENTA, @object
	.size	_ZL10FL_MAGENTA, 4
_ZL10FL_MAGENTA:
	.long	248
	.align 4
	.type	_ZL7FL_CYAN, @object
	.size	_ZL7FL_CYAN, 4
_ZL7FL_CYAN:
	.long	223
	.align 4
	.type	_ZL11FL_DARK_RED, @object
	.size	_ZL11FL_DARK_RED, 4
_ZL11FL_DARK_RED:
	.long	72
	.align 4
	.type	_ZL13FL_DARK_GREEN, @object
	.size	_ZL13FL_DARK_GREEN, 4
_ZL13FL_DARK_GREEN:
	.long	60
	.align 4
	.type	_ZL14FL_DARK_YELLOW, @object
	.size	_ZL14FL_DARK_YELLOW, 4
_ZL14FL_DARK_YELLOW:
	.long	76
	.align 4
	.type	_ZL12FL_DARK_BLUE, @object
	.size	_ZL12FL_DARK_BLUE, 4
_ZL12FL_DARK_BLUE:
	.long	136
	.align 4
	.type	_ZL15FL_DARK_MAGENTA, @object
	.size	_ZL15FL_DARK_MAGENTA, 4
_ZL15FL_DARK_MAGENTA:
	.long	152
	.align 4
	.type	_ZL12FL_DARK_CYAN, @object
	.size	_ZL12FL_DARK_CYAN, 4
_ZL12FL_DARK_CYAN:
	.long	140
	.align 4
	.type	_ZL8FL_WHITE, @object
	.size	_ZL8FL_WHITE, 4
_ZL8FL_WHITE:
	.long	255
	.text
	.type	_ZN12_GLOBAL__N_114init_table_fixEv, @function
_ZN12_GLOBAL__N_114init_table_fixEv:
.LFB876:
	.cfi_startproc
	pushq	%rbp
	.cfi_def_cfa_offset 16
	.cfi_offset 6, -16
	movq	%rsp, %rbp
	.cfi_def_cfa_register 6
	pushq	%rbx
	subq	$24, %rsp
	.cfi_offset 3, -24
	movl	$1024, %edi
	call	_Znam
	movq	%rax, -24(%rbp)
	movl	$0, -28(%rbp)
.L3:
	cmpl	$255, -28(%rbp)
	jg	.L2
	movl	-28(%rbp), %eax
	cltq
	leaq	0(,%rax,4), %rdx
	movq	-24(%rbp), %rax
	leaq	(%rdx,%rax), %rbx
	pxor	%xmm0, %xmm0
	cvtsi2sd	-28(%rbp), %xmm0
	movsd	.LC0(%rip), %xmm1
	divsd	%xmm1, %xmm0
	movsd	.LC1(%rip), %xmm1
	call	pow
	movapd	%xmm0, %xmm1
	movsd	.LC2(%rip), %xmm0
	mulsd	%xmm1, %xmm0
	cvttsd2si	%xmm0, %eax
	movl	%eax, (%rbx)
	addl	$1, -28(%rbp)
	jmp	.L3
.L2:
	movq	-24(%rbp), %rax
	addq	$24, %rsp
	popq	%rbx
	popq	%rbp
	.cfi_def_cfa 7, 8
	ret
	.cfi_endproc
.LFE876:
	.size	_ZN12_GLOBAL__N_114init_table_fixEv, .-_ZN12_GLOBAL__N_114init_table_fixEv
	.type	_ZN12_GLOBAL__N_116init_table_unfixEv, @function
_ZN12_GLOBAL__N_116init_table_unfixEv:
.LFB877:
	.cfi_startproc
	pushq	%rbp
	.cfi_def_cfa_offset 16
	.cfi_offset 6, -16
	movq	%rsp, %rbp
	.cfi_def_cfa_register 6
	pushq	%rbx
	subq	$24, %rsp
	.cfi_offset 3, -24
	movl	$262144, %edi
	call	_Znam
	movq	%rax, -24(%rbp)
	movl	$0, -28(%rbp)
.L7:
	cmpl	$65535, -28(%rbp)
	jg	.L6
	movl	-28(%rbp), %eax
	cltq
	leaq	0(,%rax,4), %rdx
	movq	-24(%rbp), %rax
	leaq	(%rdx,%rax), %rbx
	pxor	%xmm0, %xmm0
	cvtsi2sd	-28(%rbp), %xmm0
	movsd	.LC2(%rip), %xmm1
	divsd	%xmm1, %xmm0
	movsd	.LC3(%rip), %xmm1
	call	pow
	movapd	%xmm0, %xmm1
	movsd	.LC0(%rip), %xmm0
	mulsd	%xmm1, %xmm0
	cvttsd2si	%xmm0, %eax
	movl	%eax, (%rbx)
	addl	$1, -28(%rbp)
	jmp	.L7
.L6:
	movq	-24(%rbp), %rax
	addq	$24, %rsp
	popq	%rbx
	popq	%rbp
	.cfi_def_cfa 7, 8
	ret
	.cfi_endproc
.LFE877:
	.size	_ZN12_GLOBAL__N_116init_table_unfixEv, .-_ZN12_GLOBAL__N_116init_table_unfixEv
	.local	_ZN12_GLOBAL__N_1L9table_fixE
	.comm	_ZN12_GLOBAL__N_1L9table_fixE,8,8
	.local	_ZN12_GLOBAL__N_1L11table_unfixE
	.comm	_ZN12_GLOBAL__N_1L11table_unfixE,8,8
	.section	.text._ZN5Gamma3fixEi,"axG",@progbits,_ZN5Gamma3fixEi,comdat
	.weak	_ZN5Gamma3fixEi
	.type	_ZN5Gamma3fixEi, @function
_ZN5Gamma3fixEi:
.LFB878:
	.cfi_startproc
	pushq	%rbp
	.cfi_def_cfa_offset 16
	.cfi_offset 6, -16
	movq	%rsp, %rbp
	.cfi_def_cfa_register 6
	movl	%edi, -4(%rbp)
	movq	_ZN12_GLOBAL__N_1L9table_fixE(%rip), %rax
	movl	-4(%rbp), %edx
	movslq	%edx, %rdx
	salq	$2, %rdx
	addq	%rdx, %rax
	movl	(%rax), %eax
	popq	%rbp
	.cfi_def_cfa 7, 8
	ret
	.cfi_endproc
.LFE878:
	.size	_ZN5Gamma3fixEi, .-_ZN5Gamma3fixEi
	.section	.text._ZN5Gamma5unfixEi,"axG",@progbits,_ZN5Gamma5unfixEi,comdat
	.weak	_ZN5Gamma5unfixEi
	.type	_ZN5Gamma5unfixEi, @function
_ZN5Gamma5unfixEi:
.LFB879:
	.cfi_startproc
	pushq	%rbp
	.cfi_def_cfa_offset 16
	.cfi_offset 6, -16
	movq	%rsp, %rbp
	.cfi_def_cfa_register 6
	movl	%edi, -4(%rbp)
	movq	_ZN12_GLOBAL__N_1L11table_unfixE(%rip), %rax
	movl	-4(%rbp), %edx
	movslq	%edx, %rdx
	salq	$2, %rdx
	addq	%rdx, %rax
	movl	(%rax), %eax
	popq	%rbp
	.cfi_def_cfa 7, 8
	ret
	.cfi_endproc
.LFE879:
	.size	_ZN5Gamma5unfixEi, .-_ZN5Gamma5unfixEi
	.section	.text._Z7getRgbaj,"axG",@progbits,_Z7getRgbaj,comdat
	.weak	_Z7getRgbaj
	.type	_Z7getRgbaj, @function
_Z7getRgbaj:
.LFB935:
	.cfi_startproc
	pushq	%rbp
	.cfi_def_cfa_offset 16
	.cfi_offset 6, -16
	movq	%rsp, %rbp
	.cfi_def_cfa_register 6
	subq	$32, %rsp
	movl	%edi, -20(%rbp)
	movq	%fs:40, %rax
	movq	%rax, -8(%rbp)
	xorl	%eax, %eax
	movl	-20(%rbp), %eax
	movl	%eax, -16(%rbp)
	movl	-16(%rbp), %eax
	movq	-8(%rbp), %rdx
	xorq	%fs:40, %rdx
	je	.L15
	call	__stack_chk_fail
.L15:
	leave
	.cfi_def_cfa 7, 8
	ret
	.cfi_endproc
.LFE935:
	.size	_Z7getRgbaj, .-_Z7getRgbaj
	.section	.text._Z7makeRgbiii,"axG",@progbits,_Z7makeRgbiii,comdat
	.weak	_Z7makeRgbiii
	.type	_Z7makeRgbiii, @function
_Z7makeRgbiii:
.LFB936:
	.cfi_startproc
	pushq	%rbp
	.cfi_def_cfa_offset 16
	.cfi_offset 6, -16
	movq	%rsp, %rbp
	.cfi_def_cfa_register 6
	movl	%edi, -4(%rbp)
	movl	%esi, -8(%rbp)
	movl	%edx, -12(%rbp)
	movl	-8(%rbp), %eax
	sall	$8, %eax
	orl	-4(%rbp), %eax
	movl	-12(%rbp), %edx
	sall	$16, %edx
	orl	%edx, %eax
	orl	$-16777216, %eax
	popq	%rbp
	.cfi_def_cfa 7, 8
	ret
	.cfi_endproc
.LFE936:
	.size	_Z7makeRgbiii, .-_Z7makeRgbiii
	.section	.text._Z8scaleValii,"axG",@progbits,_Z8scaleValii,comdat
	.weak	_Z8scaleValii
	.type	_Z8scaleValii, @function
_Z8scaleValii:
.LFB946:
	.cfi_startproc
	pushq	%rbp
	.cfi_def_cfa_offset 16
	.cfi_offset 6, -16
	movq	%rsp, %rbp
	.cfi_def_cfa_register 6
	movl	%edi, -4(%rbp)
	movl	%esi, -8(%rbp)
	movl	$255, %eax
	subl	-8(%rbp), %eax
	imull	-4(%rbp), %eax
	movslq	%eax, %rdx
	imulq	$-2139062143, %rdx, %rdx
	shrq	$32, %rdx
	addl	%eax, %edx
	sarl	$7, %edx
	sarl	$31, %eax
	subl	%eax, %edx
	movl	-8(%rbp), %eax
	addl	%edx, %eax
	popq	%rbp
	.cfi_def_cfa 7, 8
	ret
	.cfi_endproc
.LFE946:
	.size	_Z8scaleValii, .-_Z8scaleValii
	.weak	_ZZN9ExtraMath3rndEvE4seed
	.section	.data._ZZN9ExtraMath3rndEvE4seed,"awG",@progbits,_ZZN9ExtraMath3rndEvE4seed,comdat
	.align 4
	.type	_ZZN9ExtraMath3rndEvE4seed, @gnu_unique_object
	.size	_ZZN9ExtraMath3rndEvE4seed, 4
_ZZN9ExtraMath3rndEvE4seed:
	.long	12345
	.section	.text._ZN9ExtraMath3rndEv,"axG",@progbits,_ZN9ExtraMath3rndEv,comdat
	.weak	_ZN9ExtraMath3rndEv
	.type	_ZN9ExtraMath3rndEv, @function
_ZN9ExtraMath3rndEv:
.LFB961:
	.cfi_startproc
	pushq	%rbp
	.cfi_def_cfa_offset 16
	.cfi_offset 6, -16
	movq	%rsp, %rbp
	.cfi_def_cfa_register 6
	movl	_ZZN9ExtraMath3rndEvE4seed(%rip), %eax
	sall	$17, %eax
	movl	%eax, %edx
	movl	_ZZN9ExtraMath3rndEvE4seed(%rip), %eax
	xorl	%edx, %eax
	movl	%eax, _ZZN9ExtraMath3rndEvE4seed(%rip)
	movl	_ZZN9ExtraMath3rndEvE4seed(%rip), %eax
	sarl	$13, %eax
	movl	%eax, %edx
	movl	_ZZN9ExtraMath3rndEvE4seed(%rip), %eax
	xorl	%edx, %eax
	movl	%eax, _ZZN9ExtraMath3rndEvE4seed(%rip)
	movl	_ZZN9ExtraMath3rndEvE4seed(%rip), %eax
	sall	$5, %eax
	movl	%eax, %edx
	movl	_ZZN9ExtraMath3rndEvE4seed(%rip), %eax
	xorl	%edx, %eax
	movl	%eax, _ZZN9ExtraMath3rndEvE4seed(%rip)
	movl	_ZZN9ExtraMath3rndEvE4seed(%rip), %eax
	popq	%rbp
	.cfi_def_cfa 7, 8
	ret
	.cfi_endproc
.LFE961:
	.size	_ZN9ExtraMath3rndEv, .-_ZN9ExtraMath3rndEv
	.local	_ZN12_GLOBAL__N_13bmpE
	.comm	_ZN12_GLOBAL__N_13bmpE,8,8
	.local	_ZN12_GLOBAL__N_13mapE
	.comm	_ZN12_GLOBAL__N_13mapE,8,8
	.local	_ZN12_GLOBAL__N_15brushE
	.comm	_ZN12_GLOBAL__N_15brushE,8,8
	.local	_ZN12_GLOBAL__N_16strokeE
	.comm	_ZN12_GLOBAL__N_16strokeE,8,8
	.local	_ZN12_GLOBAL__N_14viewE
	.comm	_ZN12_GLOBAL__N_14viewE,8,8
	.local	_ZN12_GLOBAL__N_15colorE
	.comm	_ZN12_GLOBAL__N_15colorE,4,4
	.local	_ZN12_GLOBAL__N_15transE
	.comm	_ZN12_GLOBAL__N_15transE,4,4
	.text
	.type	_ZN12_GLOBAL__N_16isEdgeEP3Mapii, @function
_ZN12_GLOBAL__N_16isEdgeEP3Mapii:
.LFB973:
	.cfi_startproc
	pushq	%rbp
	.cfi_def_cfa_offset 16
	.cfi_offset 6, -16
	movq	%rsp, %rbp
	.cfi_def_cfa_register 6
	movq	%rdi, -8(%rbp)
	movl	%esi, -12(%rbp)
	movl	%edx, -16(%rbp)
	cmpl	$0, -12(%rbp)
	jle	.L23
	movq	-8(%rbp), %rax
	movl	(%rax), %eax
	subl	$1, %eax
	cmpl	-12(%rbp), %eax
	jle	.L23
	cmpl	$0, -16(%rbp)
	jle	.L23
	movq	-8(%rbp), %rax
	movl	4(%rax), %eax
	subl	$1, %eax
	cmpl	-16(%rbp), %eax
	jg	.L24
.L23:
	movl	$0, %eax
	jmp	.L25
.L24:
	movq	-8(%rbp), %rax
	movq	16(%rax), %rax
	movl	-16(%rbp), %edx
	movslq	%edx, %rdx
	salq	$3, %rdx
	subq	$8, %rdx
	addq	%rdx, %rax
	movq	(%rax), %rdx
	movl	-12(%rbp), %eax
	cltq
	addq	%rdx, %rax
	movzbl	(%rax), %eax
	testb	%al, %al
	je	.L26
	movq	-8(%rbp), %rax
	movq	16(%rax), %rax
	movl	-16(%rbp), %edx
	movslq	%edx, %rdx
	salq	$3, %rdx
	addq	%rdx, %rax
	movq	(%rax), %rax
	movl	-12(%rbp), %edx
	movslq	%edx, %rdx
	subq	$1, %rdx
	addq	%rdx, %rax
	movzbl	(%rax), %eax
	testb	%al, %al
	je	.L26
	movq	-8(%rbp), %rax
	movq	16(%rax), %rax
	movl	-16(%rbp), %edx
	movslq	%edx, %rdx
	salq	$3, %rdx
	addq	%rdx, %rax
	movq	(%rax), %rax
	movl	-12(%rbp), %edx
	movslq	%edx, %rdx
	addq	$1, %rdx
	addq	%rdx, %rax
	movzbl	(%rax), %eax
	testb	%al, %al
	je	.L26
	movq	-8(%rbp), %rax
	movq	16(%rax), %rax
	movl	-16(%rbp), %edx
	movslq	%edx, %rdx
	addq	$1, %rdx
	salq	$3, %rdx
	addq	%rdx, %rax
	movq	(%rax), %rdx
	movl	-12(%rbp), %eax
	cltq
	addq	%rdx, %rax
	movzbl	(%rax), %eax
	testb	%al, %al
	je	.L26
	movl	$0, %eax
	jmp	.L25
.L26:
	movl	$1, %eax
.L25:
	popq	%rbp
	.cfi_def_cfa 7, 8
	ret
	.cfi_endproc
.LFE973:
	.size	_ZN12_GLOBAL__N_16isEdgeEP3Mapii, .-_ZN12_GLOBAL__N_16isEdgeEP3Mapii
	.type	_ZN12_GLOBAL__N_18fineEdgeEiiiiii, @function
_ZN12_GLOBAL__N_18fineEdgeEiiiiii:
.LFB974:
	.cfi_startproc
	pushq	%rbp
	.cfi_def_cfa_offset 16
	.cfi_offset 6, -16
	movq	%rsp, %rbp
	.cfi_def_cfa_register 6
	subq	$48, %rsp
	movl	%edi, -20(%rbp)
	movl	%esi, -24(%rbp)
	movl	%edx, -28(%rbp)
	movl	%ecx, -32(%rbp)
	movl	%r8d, -36(%rbp)
	movl	%r9d, -40(%rbp)
	movl	-28(%rbp), %eax
	subl	%eax, -20(%rbp)
	movl	-32(%rbp), %eax
	subl	%eax, -24(%rbp)
	movl	-20(%rbp), %eax
	imull	-20(%rbp), %eax
	movl	%eax, %edx
	movl	-24(%rbp), %eax
	imull	-24(%rbp), %eax
	addl	%edx, %eax
	pxor	%xmm1, %xmm1
	cvtsi2ss	%eax, %xmm1
	sqrtss	%xmm1, %xmm0
	ucomiss	%xmm0, %xmm0
	jp	.L29
	ucomiss	%xmm0, %xmm0
	je	.L28
.L29:
	movaps	%xmm1, %xmm0
	call	sqrtf
.L28:
	movss	%xmm0, -12(%rbp)
	movl	$255, %eax
	subl	-40(%rbp), %eax
	movl	-36(%rbp), %edx
	movl	$3, %esi
	movl	%edx, %ecx
	sall	%cl, %esi
	movl	%esi, %edx
	sarl	%edx
	leal	1(%rdx), %edi
	cltd
	idivl	%edi
	movl	%eax, -8(%rbp)
	pxor	%xmm0, %xmm0
	cvtsi2ss	-8(%rbp), %xmm0
	mulss	-12(%rbp), %xmm0
	movss	.LC4(%rip), %xmm1
	subss	%xmm0, %xmm1
	movaps	%xmm1, %xmm0
	cvttss2si	%xmm0, %eax
	movl	%eax, -4(%rbp)
	movl	-4(%rbp), %eax
	cmpl	-40(%rbp), %eax
	jge	.L30
	movl	-40(%rbp), %eax
	jmp	.L32
.L30:
	movl	-4(%rbp), %eax
.L32:
	leave
	.cfi_def_cfa 7, 8
	ret
	.cfi_endproc
.LFE974:
	.size	_ZN12_GLOBAL__N_18fineEdgeEiiiiii, .-_ZN12_GLOBAL__N_18fineEdgeEiiiiii
	.type	_ZN12_GLOBAL__N_111shrinkBlockEPhS0_S0_S0_, @function
_ZN12_GLOBAL__N_111shrinkBlockEPhS0_S0_S0_:
.LFB975:
	.cfi_startproc
	pushq	%rbp
	.cfi_def_cfa_offset 16
	.cfi_offset 6, -16
	movq	%rsp, %rbp
	.cfi_def_cfa_register 6
	movq	%rdi, -24(%rbp)
	movq	%rsi, -32(%rbp)
	movq	%rdx, -40(%rbp)
	movq	%rcx, -48(%rbp)
	movq	-24(%rbp), %rax
	movzbl	(%rax), %eax
	movzbl	%al, %edx
	movq	-32(%rbp), %rax
	movzbl	(%rax), %eax
	movzbl	%al, %eax
	addl	%eax, %eax
	orl	%eax, %edx
	movq	-40(%rbp), %rax
	movzbl	(%rax), %eax
	movzbl	%al, %eax
	sall	$2, %eax
	orl	%eax, %edx
	movq	-48(%rbp), %rax
	movzbl	(%rax), %eax
	movzbl	%al, %eax
	sall	$3, %eax
	orl	%edx, %eax
	movl	%eax, -4(%rbp)
	cmpl	$15, -4(%rbp)
	ja	.L34
	movl	-4(%rbp), %eax
	movq	.L36(,%rax,8), %rax
	jmp	*%rax
	.section	.rodata
	.align 8
	.align 4
.L36:
	.quad	.L40
	.quad	.L34
	.quad	.L34
	.quad	.L34
	.quad	.L34
	.quad	.L34
	.quad	.L34
	.quad	.L37
	.quad	.L34
	.quad	.L34
	.quad	.L34
	.quad	.L38
	.quad	.L34
	.quad	.L38
	.quad	.L37
	.quad	.L40
	.text
.L37:
	movq	-32(%rbp), %rax
	movb	$0, (%rax)
	movq	-40(%rbp), %rax
	movb	$0, (%rax)
	jmp	.L33
.L38:
	movq	-24(%rbp), %rax
	movb	$0, (%rax)
	movq	-48(%rbp), %rax
	movb	$0, (%rax)
	jmp	.L33
.L34:
	movq	-48(%rbp), %rax
	movb	$0, (%rax)
	movq	-48(%rbp), %rax
	movzbl	(%rax), %edx
	movq	-40(%rbp), %rax
	movb	%dl, (%rax)
	movq	-40(%rbp), %rax
	movzbl	(%rax), %edx
	movq	-32(%rbp), %rax
	movb	%dl, (%rax)
	movq	-32(%rbp), %rax
	movzbl	(%rax), %edx
	movq	-24(%rbp), %rax
	movb	%dl, (%rax)
	jmp	.L33
.L40:
	nop
.L33:
	popq	%rbp
	.cfi_def_cfa 7, 8
	ret
	.cfi_endproc
.LFE975:
	.size	_ZN12_GLOBAL__N_111shrinkBlockEPhS0_S0_S0_, .-_ZN12_GLOBAL__N_111shrinkBlockEPhS0_S0_S0_
	.type	_ZN12_GLOBAL__N_19growBlockEPhS0_S0_S0_, @function
_ZN12_GLOBAL__N_19growBlockEPhS0_S0_S0_:
.LFB976:
	.cfi_startproc
	pushq	%rbp
	.cfi_def_cfa_offset 16
	.cfi_offset 6, -16
	movq	%rsp, %rbp
	.cfi_def_cfa_register 6
	movq	%rdi, -24(%rbp)
	movq	%rsi, -32(%rbp)
	movq	%rdx, -40(%rbp)
	movq	%rcx, -48(%rbp)
	movq	-24(%rbp), %rax
	movzbl	(%rax), %eax
	movzbl	%al, %edx
	movq	-32(%rbp), %rax
	movzbl	(%rax), %eax
	movzbl	%al, %eax
	addl	%eax, %eax
	orl	%eax, %edx
	movq	-40(%rbp), %rax
	movzbl	(%rax), %eax
	movzbl	%al, %eax
	sall	$2, %eax
	orl	%eax, %edx
	movq	-48(%rbp), %rax
	movzbl	(%rax), %eax
	movzbl	%al, %eax
	sall	$3, %eax
	orl	%edx, %eax
	movl	%eax, -4(%rbp)
	cmpl	$15, -4(%rbp)
	ja	.L42
	movl	-4(%rbp), %eax
	movq	.L44(,%rax,8), %rax
	jmp	*%rax
	.section	.rodata
	.align 8
	.align 4
.L44:
	.quad	.L48
	.quad	.L45
	.quad	.L46
	.quad	.L42
	.quad	.L46
	.quad	.L42
	.quad	.L42
	.quad	.L42
	.quad	.L45
	.quad	.L42
	.quad	.L42
	.quad	.L42
	.quad	.L42
	.quad	.L42
	.quad	.L42
	.quad	.L48
	.text
.L45:
	movq	-32(%rbp), %rax
	movb	$1, (%rax)
	movq	-40(%rbp), %rax
	movb	$1, (%rax)
	jmp	.L41
.L46:
	movq	-24(%rbp), %rax
	movb	$1, (%rax)
	movq	-48(%rbp), %rax
	movb	$1, (%rax)
	jmp	.L41
.L42:
	movq	-48(%rbp), %rax
	movb	$1, (%rax)
	movq	-48(%rbp), %rax
	movzbl	(%rax), %edx
	movq	-40(%rbp), %rax
	movb	%dl, (%rax)
	movq	-40(%rbp), %rax
	movzbl	(%rax), %edx
	movq	-32(%rbp), %rax
	movb	%dl, (%rax)
	movq	-32(%rbp), %rax
	movzbl	(%rax), %edx
	movq	-24(%rbp), %rax
	movb	%dl, (%rax)
	jmp	.L41
.L48:
	nop
.L41:
	popq	%rbp
	.cfi_def_cfa 7, 8
	ret
	.cfi_endproc
.LFE976:
	.size	_ZN12_GLOBAL__N_19growBlockEPhS0_S0_S0_, .-_ZN12_GLOBAL__N_19growBlockEPhS0_S0_S0_
	.type	_ZN12_GLOBAL__N_16updateEi, @function
_ZN12_GLOBAL__N_16updateEi:
.LFB977:
	.cfi_startproc
	pushq	%rbp
	.cfi_def_cfa_offset 16
	.cfi_offset 6, -16
	movq	%rsp, %rbp
	.cfi_def_cfa_register 6
	subq	$16, %rsp
	movl	%edi, -4(%rbp)
	movl	$65307, %edi
	call	_ZN2Fl7get_keyEi
	testl	%eax, %eax
	setne	%al
	testb	%al, %al
	je	.L50
	call	_ZN3Gui7getViewEv
	movl	$1, %esi
	movq	%rax, %rdi
	call	_ZN4View8drawMainEb
	movl	$-1, %eax
	jmp	.L51
.L50:
	movl	-4(%rbp), %eax
	andl	$63, %eax
	cmpl	$63, %eax
	jne	.L52
	movq	_ZN12_GLOBAL__N_14viewE(%rip), %rax
	movl	$1, %esi
	movq	%rax, %rdi
	call	_ZN4View8drawMainEb
	call	_ZN2Fl5checkEv
.L52:
	movl	$0, %eax
.L51:
	leave
	.cfi_def_cfa 7, 8
	ret
	.cfi_endproc
.LFE977:
	.size	_ZN12_GLOBAL__N_16updateEi, .-_ZN12_GLOBAL__N_16updateEi
	.type	_ZN12_GLOBAL__N_111renderSolidEv, @function
_ZN12_GLOBAL__N_111renderSolidEv:
.LFB978:
	.cfi_startproc
	pushq	%rbp
	.cfi_def_cfa_offset 16
	.cfi_offset 6, -16
	movq	%rsp, %rbp
	.cfi_def_cfa_register 6
	subq	$16, %rsp
	movq	_ZN12_GLOBAL__N_16strokeE(%rip), %rax
	movl	4(%rax), %eax
	movl	%eax, -16(%rbp)
.L58:
	movq	_ZN12_GLOBAL__N_16strokeE(%rip), %rax
	movl	12(%rax), %eax
	cmpl	-16(%rbp), %eax
	jl	.L59
	movq	_ZN12_GLOBAL__N_13mapE(%rip), %rax
	movq	16(%rax), %rax
	movl	-16(%rbp), %edx
	movslq	%edx, %rdx
	salq	$3, %rdx
	addq	%rdx, %rax
	movq	(%rax), %rdx
	movq	_ZN12_GLOBAL__N_16strokeE(%rip), %rax
	movl	(%rax), %eax
	cltq
	addq	%rdx, %rax
	movq	%rax, -8(%rbp)
	movq	_ZN12_GLOBAL__N_16strokeE(%rip), %rax
	movl	(%rax), %eax
	movl	%eax, -12(%rbp)
.L57:
	movq	_ZN12_GLOBAL__N_16strokeE(%rip), %rax
	movl	8(%rax), %eax
	cmpl	-12(%rbp), %eax
	jl	.L55
	movq	-8(%rbp), %rax
	leaq	1(%rax), %rdx
	movq	%rdx, -8(%rbp)
	movzbl	(%rax), %eax
	testb	%al, %al
	setne	%al
	testb	%al, %al
	je	.L56
	movl	_ZN12_GLOBAL__N_15transE(%rip), %edi
	movl	_ZN12_GLOBAL__N_15colorE(%rip), %ecx
	movq	_ZN12_GLOBAL__N_13bmpE(%rip), %rax
	movl	-16(%rbp), %edx
	movl	-12(%rbp), %esi
	movl	%edi, %r8d
	movq	%rax, %rdi
	call	_ZN6Bitmap8setpixelEiiii
.L56:
	addl	$1, -12(%rbp)
	jmp	.L57
.L55:
	addl	$1, -16(%rbp)
	jmp	.L58
.L59:
	nop
	leave
	.cfi_def_cfa 7, 8
	ret
	.cfi_endproc
.LFE978:
	.size	_ZN12_GLOBAL__N_111renderSolidEv, .-_ZN12_GLOBAL__N_111renderSolidEv
	.type	_ZN12_GLOBAL__N_117renderAntialiasedEv, @function
_ZN12_GLOBAL__N_117renderAntialiasedEv:
.LFB979:
	.cfi_startproc
	pushq	%rbp
	.cfi_def_cfa_offset 16
	.cfi_offset 6, -16
	movq	%rsp, %rbp
	.cfi_def_cfa_register 6
	subq	$16, %rsp
	movq	_ZN12_GLOBAL__N_16strokeE(%rip), %rax
	movl	4(%rax), %eax
	movl	%eax, -16(%rbp)
.L65:
	movq	_ZN12_GLOBAL__N_16strokeE(%rip), %rax
	movl	12(%rax), %eax
	cmpl	-16(%rbp), %eax
	jl	.L66
	movq	_ZN12_GLOBAL__N_13mapE(%rip), %rax
	movq	16(%rax), %rax
	movl	-16(%rbp), %edx
	movslq	%edx, %rdx
	salq	$3, %rdx
	addq	%rdx, %rax
	movq	(%rax), %rdx
	movq	_ZN12_GLOBAL__N_16strokeE(%rip), %rax
	movl	(%rax), %eax
	cltq
	addq	%rdx, %rax
	movq	%rax, -8(%rbp)
	movq	_ZN12_GLOBAL__N_16strokeE(%rip), %rax
	movl	(%rax), %eax
	movl	%eax, -12(%rbp)
.L64:
	movq	_ZN12_GLOBAL__N_16strokeE(%rip), %rax
	movl	8(%rax), %eax
	cmpl	-12(%rbp), %eax
	jl	.L62
	movq	-8(%rbp), %rax
	movzbl	(%rax), %eax
	testb	%al, %al
	je	.L63
	movl	_ZN12_GLOBAL__N_15transE(%rip), %eax
	movq	-8(%rbp), %rdx
	movzbl	(%rdx), %edx
	movzbl	%dl, %edx
	movl	$255, %ecx
	subl	%edx, %ecx
	movl	%ecx, %edx
	movl	%eax, %esi
	movl	%edx, %edi
	call	_Z8scaleValii
	movl	%eax, %edi
	movl	_ZN12_GLOBAL__N_15colorE(%rip), %ecx
	movq	_ZN12_GLOBAL__N_13bmpE(%rip), %rax
	movl	-16(%rbp), %edx
	movl	-12(%rbp), %esi
	movl	%edi, %r8d
	movq	%rax, %rdi
	call	_ZN6Bitmap8setpixelEiiii
.L63:
	addq	$1, -8(%rbp)
	addl	$1, -12(%rbp)
	jmp	.L64
.L62:
	addl	$1, -16(%rbp)
	jmp	.L65
.L66:
	nop
	leave
	.cfi_def_cfa 7, 8
	ret
	.cfi_endproc
.LFE979:
	.size	_ZN12_GLOBAL__N_117renderAntialiasedEv, .-_ZN12_GLOBAL__N_117renderAntialiasedEv
	.type	_ZN12_GLOBAL__N_112renderCoarseEv, @function
_ZN12_GLOBAL__N_112renderCoarseEv:
.LFB980:
	.cfi_startproc
	pushq	%rbp
	.cfi_def_cfa_offset 16
	.cfi_offset 6, -16
	movq	%rsp, %rbp
	.cfi_def_cfa_register 6
	subq	$80, %rsp
	movss	.LC4(%rip), %xmm0
	movss	%xmm0, -64(%rbp)
	movq	_ZN12_GLOBAL__N_15brushE(%rip), %rax
	movl	48(%rax), %eax
	movl	$3, %edx
	movl	%eax, %ecx
	sall	%cl, %edx
	movl	%edx, %eax
	movl	%eax, -40(%rbp)
	movl	_ZN12_GLOBAL__N_15transE(%rip), %eax
	movl	$255, %edx
	subl	%eax, %edx
	movl	%edx, %eax
	pxor	%xmm0, %xmm0
	cvtsi2ss	%eax, %xmm0
	movl	-40(%rbp), %eax
	sarl	%eax
	addl	$1, %eax
	pxor	%xmm1, %xmm1
	cvtsi2ss	%eax, %xmm1
	divss	%xmm1, %xmm0
	movss	%xmm0, -36(%rbp)
	movb	$0, -69(%rbp)
	movl	$0, -60(%rbp)
.L87:
	movl	-60(%rbp), %eax
	cmpl	-40(%rbp), %eax
	jge	.L67
	movq	_ZN12_GLOBAL__N_16strokeE(%rip), %rax
	movl	4(%rax), %eax
	movl	-60(%rbp), %edx
	andl	$1, %edx
	addl	%edx, %eax
	movl	%eax, -56(%rbp)
.L77:
	movq	_ZN12_GLOBAL__N_16strokeE(%rip), %rax
	movl	12(%rax), %eax
	cmpl	-56(%rbp), %eax
	jle	.L69
	movq	_ZN12_GLOBAL__N_16strokeE(%rip), %rax
	movl	(%rax), %eax
	movl	-60(%rbp), %edx
	andl	$1, %edx
	addl	%edx, %eax
	movl	%eax, -52(%rbp)
.L76:
	movq	_ZN12_GLOBAL__N_16strokeE(%rip), %rax
	movl	8(%rax), %eax
	cmpl	-52(%rbp), %eax
	jle	.L70
	movq	_ZN12_GLOBAL__N_13mapE(%rip), %rax
	movq	16(%rax), %rax
	movl	-56(%rbp), %edx
	movslq	%edx, %rdx
	salq	$3, %rdx
	addq	%rdx, %rax
	movq	(%rax), %rdx
	movl	-52(%rbp), %eax
	cltq
	addq	%rdx, %rax
	movq	%rax, -32(%rbp)
	movq	_ZN12_GLOBAL__N_13mapE(%rip), %rax
	movq	16(%rax), %rax
	movl	-56(%rbp), %edx
	movslq	%edx, %rdx
	salq	$3, %rdx
	addq	%rdx, %rax
	movq	(%rax), %rax
	movl	-52(%rbp), %edx
	movslq	%edx, %rdx
	addq	$1, %rdx
	addq	%rdx, %rax
	movq	%rax, -24(%rbp)
	movq	_ZN12_GLOBAL__N_13mapE(%rip), %rax
	movq	16(%rax), %rax
	movl	-56(%rbp), %edx
	movslq	%edx, %rdx
	addq	$1, %rdx
	salq	$3, %rdx
	addq	%rdx, %rax
	movq	(%rax), %rdx
	movl	-52(%rbp), %eax
	cltq
	addq	%rdx, %rax
	movq	%rax, -16(%rbp)
	movq	_ZN12_GLOBAL__N_13mapE(%rip), %rax
	movq	16(%rax), %rax
	movl	-56(%rbp), %edx
	movslq	%edx, %rdx
	addq	$1, %rdx
	salq	$3, %rdx
	addq	%rdx, %rax
	movq	(%rax), %rax
	movl	-52(%rbp), %edx
	movslq	%edx, %rdx
	addq	$1, %rdx
	addq	%rdx, %rax
	movq	%rax, -8(%rbp)
	movq	-32(%rbp), %rax
	movzbl	(%rax), %eax
	andl	$1, %eax
	movl	%eax, %edx
	movq	-32(%rbp), %rax
	movb	%dl, (%rax)
	movq	-24(%rbp), %rax
	movzbl	(%rax), %eax
	andl	$1, %eax
	movl	%eax, %edx
	movq	-24(%rbp), %rax
	movb	%dl, (%rax)
	movq	-16(%rbp), %rax
	movzbl	(%rax), %eax
	andl	$1, %eax
	movl	%eax, %edx
	movq	-16(%rbp), %rax
	movb	%dl, (%rax)
	movq	-8(%rbp), %rax
	movzbl	(%rax), %eax
	andl	$1, %eax
	movl	%eax, %edx
	movq	-8(%rbp), %rax
	movb	%dl, (%rax)
	movq	-32(%rbp), %rax
	movzbl	(%rax), %edx
	movq	-24(%rbp), %rax
	movzbl	(%rax), %eax
	orl	%eax, %edx
	movq	-16(%rbp), %rax
	movzbl	(%rax), %eax
	orl	%eax, %edx
	movq	-8(%rbp), %rax
	movzbl	(%rax), %eax
	orl	%edx, %eax
	testb	%al, %al
	je	.L71
	movb	$1, -69(%rbp)
.L71:
	movq	-32(%rbp), %rax
	movzbl	(%rax), %eax
	movb	%al, -68(%rbp)
	movq	-24(%rbp), %rax
	movzbl	(%rax), %eax
	movb	%al, -67(%rbp)
	movq	-16(%rbp), %rax
	movzbl	(%rax), %eax
	movb	%al, -66(%rbp)
	movq	-8(%rbp), %rax
	movzbl	(%rax), %eax
	movb	%al, -65(%rbp)
	movq	-8(%rbp), %rcx
	movq	-16(%rbp), %rdx
	movq	-24(%rbp), %rsi
	movq	-32(%rbp), %rax
	movq	%rax, %rdi
	call	_ZN12_GLOBAL__N_111shrinkBlockEPhS0_S0_S0_
	movq	-32(%rbp), %rax
	movzbl	(%rax), %eax
	testb	%al, %al
	jne	.L72
	cmpb	$0, -68(%rbp)
	je	.L72
	movss	-64(%rbp), %xmm0
	cvttss2si	%xmm0, %edi
	movl	_ZN12_GLOBAL__N_15colorE(%rip), %ecx
	movq	_ZN12_GLOBAL__N_13bmpE(%rip), %rax
	movl	-56(%rbp), %edx
	movl	-52(%rbp), %esi
	movl	%edi, %r8d
	movq	%rax, %rdi
	call	_ZN6Bitmap8setpixelEiiii
.L72:
	movq	-24(%rbp), %rax
	movzbl	(%rax), %eax
	testb	%al, %al
	jne	.L73
	cmpb	$0, -67(%rbp)
	je	.L73
	movss	-64(%rbp), %xmm0
	cvttss2si	%xmm0, %edi
	movl	_ZN12_GLOBAL__N_15colorE(%rip), %ecx
	movl	-52(%rbp), %eax
	leal	1(%rax), %esi
	movq	_ZN12_GLOBAL__N_13bmpE(%rip), %rax
	movl	-56(%rbp), %edx
	movl	%edi, %r8d
	movq	%rax, %rdi
	call	_ZN6Bitmap8setpixelEiiii
.L73:
	movq	-16(%rbp), %rax
	movzbl	(%rax), %eax
	testb	%al, %al
	jne	.L74
	cmpb	$0, -66(%rbp)
	je	.L74
	movss	-64(%rbp), %xmm0
	cvttss2si	%xmm0, %ecx
	movl	_ZN12_GLOBAL__N_15colorE(%rip), %edx
	movl	-56(%rbp), %eax
	leal	1(%rax), %edi
	movq	_ZN12_GLOBAL__N_13bmpE(%rip), %rax
	movl	-52(%rbp), %esi
	movl	%ecx, %r8d
	movl	%edx, %ecx
	movl	%edi, %edx
	movq	%rax, %rdi
	call	_ZN6Bitmap8setpixelEiiii
.L74:
	movq	-8(%rbp), %rax
	movzbl	(%rax), %eax
	testb	%al, %al
	jne	.L75
	cmpb	$0, -65(%rbp)
	je	.L75
	movss	-64(%rbp), %xmm0
	cvttss2si	%xmm0, %ecx
	movl	_ZN12_GLOBAL__N_15colorE(%rip), %edx
	movl	-56(%rbp), %eax
	leal	1(%rax), %edi
	movl	-52(%rbp), %eax
	leal	1(%rax), %esi
	movq	_ZN12_GLOBAL__N_13bmpE(%rip), %rax
	movl	%ecx, %r8d
	movl	%edx, %ecx
	movl	%edi, %edx
	movq	%rax, %rdi
	call	_ZN6Bitmap8setpixelEiiii
.L75:
	addl	$2, -52(%rbp)
	jmp	.L76
.L70:
	addl	$2, -56(%rbp)
	jmp	.L77
.L69:
	movzbl	-69(%rbp), %eax
	xorl	$1, %eax
	testb	%al, %al
	jne	.L90
	movss	-64(%rbp), %xmm0
	subss	-36(%rbp), %xmm0
	movss	%xmm0, -64(%rbp)
	movl	_ZN12_GLOBAL__N_15transE(%rip), %eax
	pxor	%xmm0, %xmm0
	cvtsi2ss	%eax, %xmm0
	ucomiss	-64(%rbp), %xmm0
	jbe	.L89
	movl	_ZN12_GLOBAL__N_15transE(%rip), %eax
	pxor	%xmm0, %xmm0
	cvtsi2ss	%eax, %xmm0
	movss	%xmm0, -64(%rbp)
	movq	_ZN12_GLOBAL__N_16strokeE(%rip), %rax
	movl	4(%rax), %eax
	movl	%eax, -48(%rbp)
.L85:
	movq	_ZN12_GLOBAL__N_16strokeE(%rip), %rax
	movl	12(%rax), %eax
	cmpl	-48(%rbp), %eax
	jl	.L91
	movq	_ZN12_GLOBAL__N_16strokeE(%rip), %rax
	movl	(%rax), %eax
	movl	%eax, -44(%rbp)
.L84:
	movq	_ZN12_GLOBAL__N_16strokeE(%rip), %rax
	movl	8(%rax), %eax
	cmpl	-44(%rbp), %eax
	jl	.L82
	movq	_ZN12_GLOBAL__N_13mapE(%rip), %rax
	movl	-48(%rbp), %edx
	movl	-44(%rbp), %ecx
	movl	%ecx, %esi
	movq	%rax, %rdi
	call	_ZN3Map8getpixelEii
	testl	%eax, %eax
	setne	%al
	testb	%al, %al
	je	.L83
	movss	-64(%rbp), %xmm0
	cvttss2si	%xmm0, %edi
	movl	_ZN12_GLOBAL__N_15colorE(%rip), %ecx
	movq	_ZN12_GLOBAL__N_13bmpE(%rip), %rax
	movl	-48(%rbp), %edx
	movl	-44(%rbp), %esi
	movl	%edi, %r8d
	movq	%rax, %rdi
	call	_ZN6Bitmap8setpixelEiiii
.L83:
	addl	$1, -44(%rbp)
	jmp	.L84
.L82:
	addl	$1, -48(%rbp)
	jmp	.L85
.L89:
	movl	-60(%rbp), %eax
	movl	%eax, %edi
	call	_ZN12_GLOBAL__N_16updateEi
	shrl	$31, %eax
	testb	%al, %al
	jne	.L92
	addl	$1, -60(%rbp)
	jmp	.L87
.L90:
	nop
	jmp	.L67
.L91:
	nop
	jmp	.L67
.L92:
	nop
.L67:
	leave
	.cfi_def_cfa 7, 8
	ret
	.cfi_endproc
.LFE980:
	.size	_ZN12_GLOBAL__N_112renderCoarseEv, .-_ZN12_GLOBAL__N_112renderCoarseEv
	.type	_ZN12_GLOBAL__N_110renderFineEv, @function
_ZN12_GLOBAL__N_110renderFineEv:
.LFB981:
	.cfi_startproc
	pushq	%rbp
	.cfi_def_cfa_offset 16
	.cfi_offset 6, -16
	movq	%rsp, %rbp
	.cfi_def_cfa_register 6
	subq	$80, %rsp
	movl	$0, -76(%rbp)
	movq	_ZN12_GLOBAL__N_16strokeE(%rip), %rax
	movl	4(%rax), %eax
	movl	%eax, -72(%rbp)
.L100:
	movq	_ZN12_GLOBAL__N_16strokeE(%rip), %rax
	movl	12(%rax), %eax
	cmpl	-72(%rbp), %eax
	jl	.L94
	movq	_ZN12_GLOBAL__N_16strokeE(%rip), %rax
	movl	(%rax), %eax
	movl	%eax, -68(%rbp)
.L99:
	movq	_ZN12_GLOBAL__N_16strokeE(%rip), %rax
	movl	8(%rax), %eax
	cmpl	-68(%rbp), %eax
	jl	.L95
	movq	_ZN12_GLOBAL__N_13mapE(%rip), %rax
	movl	-72(%rbp), %edx
	movl	-68(%rbp), %ecx
	movl	%ecx, %esi
	movq	%rax, %rdi
	call	_ZN3Map8getpixelEii
	testl	%eax, %eax
	je	.L96
	movq	_ZN12_GLOBAL__N_13mapE(%rip), %rax
	movl	-72(%rbp), %edx
	movl	-68(%rbp), %ecx
	movl	%ecx, %esi
	movq	%rax, %rdi
	call	_ZN12_GLOBAL__N_16isEdgeEP3Mapii
	testb	%al, %al
	je	.L96
	movl	$1, %eax
	jmp	.L97
.L96:
	movl	$0, %eax
.L97:
	testb	%al, %al
	je	.L98
	movq	_ZN12_GLOBAL__N_16strokeE(%rip), %rax
	movq	80(%rax), %rax
	movl	-76(%rbp), %edx
	movslq	%edx, %rdx
	salq	$2, %rdx
	addq	%rax, %rdx
	movl	-68(%rbp), %eax
	movl	%eax, (%rdx)
	movq	_ZN12_GLOBAL__N_16strokeE(%rip), %rax
	movq	88(%rax), %rax
	movl	-76(%rbp), %edx
	movslq	%edx, %rdx
	salq	$2, %rdx
	addq	%rax, %rdx
	movl	-72(%rbp), %eax
	movl	%eax, (%rdx)
	addl	$1, -76(%rbp)
	andl	$1048575, -76(%rbp)
.L98:
	addl	$1, -68(%rbp)
	jmp	.L99
.L95:
	addl	$1, -72(%rbp)
	jmp	.L100
.L94:
	movq	_ZN12_GLOBAL__N_16strokeE(%rip), %rax
	movl	4(%rax), %eax
	movl	%eax, -64(%rbp)
.L110:
	movq	_ZN12_GLOBAL__N_16strokeE(%rip), %rax
	movl	12(%rax), %eax
	cmpl	-64(%rbp), %eax
	jl	.L112
	movq	_ZN12_GLOBAL__N_13mapE(%rip), %rax
	movq	16(%rax), %rax
	movl	-64(%rbp), %edx
	movslq	%edx, %rdx
	salq	$3, %rdx
	addq	%rdx, %rax
	movq	(%rax), %rdx
	movq	_ZN12_GLOBAL__N_16strokeE(%rip), %rax
	movl	(%rax), %eax
	cltq
	addq	%rdx, %rax
	movq	%rax, -24(%rbp)
	movq	_ZN12_GLOBAL__N_16strokeE(%rip), %rax
	movl	(%rax), %eax
	movl	%eax, -60(%rbp)
.L108:
	movq	_ZN12_GLOBAL__N_16strokeE(%rip), %rax
	movl	8(%rax), %eax
	cmpl	-60(%rbp), %eax
	jl	.L102
	movq	-24(%rbp), %rax
	leaq	1(%rax), %rdx
	movq	%rdx, -24(%rbp)
	movzbl	(%rax), %eax
	testb	%al, %al
	sete	%al
	testb	%al, %al
	jne	.L113
	movq	_ZN12_GLOBAL__N_16strokeE(%rip), %rax
	movq	80(%rax), %rax
	movq	%rax, -16(%rbp)
	movq	_ZN12_GLOBAL__N_16strokeE(%rip), %rax
	movq	88(%rax), %rax
	movq	%rax, -8(%rbp)
	movq	-16(%rbp), %rax
	leaq	4(%rax), %rdx
	movq	%rdx, -16(%rbp)
	movl	(%rax), %eax
	movl	-60(%rbp), %edx
	subl	%eax, %edx
	movl	%edx, %eax
	movl	%eax, -44(%rbp)
	movq	-8(%rbp), %rax
	leaq	4(%rax), %rdx
	movq	%rdx, -8(%rbp)
	movl	(%rax), %eax
	movl	-64(%rbp), %edx
	subl	%eax, %edx
	movl	%edx, %eax
	movl	%eax, -40(%rbp)
	movl	$0, -56(%rbp)
	movl	-44(%rbp), %eax
	imull	-44(%rbp), %eax
	movl	%eax, %edx
	movl	-40(%rbp), %eax
	imull	-40(%rbp), %eax
	addl	%edx, %eax
	movl	%eax, -52(%rbp)
	movl	$1, -48(%rbp)
.L107:
	movl	-48(%rbp), %eax
	cmpl	-76(%rbp), %eax
	jge	.L105
	movq	-16(%rbp), %rax
	leaq	4(%rax), %rdx
	movq	%rdx, -16(%rbp)
	movl	(%rax), %eax
	movl	-60(%rbp), %edx
	subl	%eax, %edx
	movl	%edx, %eax
	movl	%eax, -36(%rbp)
	movq	-8(%rbp), %rax
	leaq	4(%rax), %rdx
	movq	%rdx, -8(%rbp)
	movl	(%rax), %eax
	movl	-64(%rbp), %edx
	subl	%eax, %edx
	movl	%edx, %eax
	movl	%eax, -32(%rbp)
	movl	-36(%rbp), %eax
	imull	-36(%rbp), %eax
	movl	%eax, %edx
	movl	-32(%rbp), %eax
	imull	-32(%rbp), %eax
	addl	%edx, %eax
	movl	%eax, -28(%rbp)
	movl	-28(%rbp), %eax
	cmpl	-52(%rbp), %eax
	jge	.L106
	movl	-48(%rbp), %eax
	movl	%eax, -56(%rbp)
	movl	-28(%rbp), %eax
	movl	%eax, -52(%rbp)
.L106:
	addl	$1, -48(%rbp)
	jmp	.L107
.L105:
	movl	_ZN12_GLOBAL__N_15transE(%rip), %r8d
	movq	_ZN12_GLOBAL__N_15brushE(%rip), %rax
	movl	52(%rax), %edi
	movq	_ZN12_GLOBAL__N_16strokeE(%rip), %rax
	movq	88(%rax), %rax
	movl	-56(%rbp), %edx
	movslq	%edx, %rdx
	salq	$2, %rdx
	addq	%rdx, %rax
	movl	(%rax), %ecx
	movq	_ZN12_GLOBAL__N_16strokeE(%rip), %rax
	movq	80(%rax), %rax
	movl	-56(%rbp), %edx
	movslq	%edx, %rdx
	salq	$2, %rdx
	addq	%rdx, %rax
	movl	(%rax), %edx
	movl	-64(%rbp), %esi
	movl	-60(%rbp), %eax
	movl	%r8d, %r9d
	movl	%edi, %r8d
	movl	%eax, %edi
	call	_ZN12_GLOBAL__N_18fineEdgeEiiiiii
	movl	%eax, %edi
	movl	_ZN12_GLOBAL__N_15colorE(%rip), %ecx
	movq	_ZN12_GLOBAL__N_13bmpE(%rip), %rax
	movl	-64(%rbp), %edx
	movl	-60(%rbp), %esi
	movl	%edi, %r8d
	movq	%rax, %rdi
	call	_ZN6Bitmap8setpixelEiiii
	jmp	.L104
.L113:
	nop
.L104:
	addl	$1, -60(%rbp)
	jmp	.L108
.L102:
	movl	-64(%rbp), %eax
	movl	%eax, %edi
	call	_ZN12_GLOBAL__N_16updateEi
	shrl	$31, %eax
	testb	%al, %al
	jne	.L114
	addl	$1, -64(%rbp)
	jmp	.L110
.L114:
	nop
.L112:
	nop
	leave
	.cfi_def_cfa 7, 8
	ret
	.cfi_endproc
.LFE981:
	.size	_ZN12_GLOBAL__N_110renderFineEv, .-_ZN12_GLOBAL__N_110renderFineEv
	.type	_ZN12_GLOBAL__N_110renderBlurEv, @function
_ZN12_GLOBAL__N_110renderBlurEv:
.LFB982:
	.cfi_startproc
	.cfi_personality 0x3,__gxx_personality_v0
	.cfi_lsda 0x3,.LLSDA982
	pushq	%rbp
	.cfi_def_cfa_offset 16
	.cfi_offset 6, -16
	movq	%rsp, %rbp
	.cfi_def_cfa_register 6
	pushq	%rbx
	subq	$200, %rsp
	.cfi_offset 3, -24
	movq	%fs:40, %rax
	movq	%rax, -24(%rbp)
	xorl	%eax, %eax
	movq	_ZN12_GLOBAL__N_16strokeE(%rip), %rax
	movl	8(%rax), %edx
	movq	_ZN12_GLOBAL__N_16strokeE(%rip), %rax
	movl	(%rax), %eax
	subl	%eax, %edx
	movl	%edx, %eax
	addl	$1, %eax
	movl	%eax, -144(%rbp)
	movq	_ZN12_GLOBAL__N_16strokeE(%rip), %rax
	movl	12(%rax), %edx
	movq	_ZN12_GLOBAL__N_16strokeE(%rip), %rax
	movl	4(%rax), %eax
	subl	%eax, %edx
	movl	%edx, %eax
	addl	$1, %eax
	movl	%eax, -140(%rbp)
	movl	-140(%rbp), %edx
	movl	-144(%rbp), %ecx
	leaq	-64(%rbp), %rax
	movl	%ecx, %esi
	movq	%rax, %rdi
.LEHB0:
	call	_ZN3MapC1Eii
.LEHE0:
	leaq	-64(%rbp), %rax
	movl	$0, %esi
	movq	%rax, %rdi
.LEHB1:
	call	_ZN3Map5clearEi
.LEHE1:
	movq	_ZN12_GLOBAL__N_15brushE(%rip), %rax
	movl	56(%rax), %eax
	leal	2(%rax), %edx
	movq	_ZN12_GLOBAL__N_15brushE(%rip), %rax
	movl	56(%rax), %eax
	addl	$2, %eax
	imull	%edx, %eax
	addl	$1, %eax
	movl	%eax, -136(%rbp)
	leaq	-197(%rbp), %rax
	movq	%rax, %rdi
	call	_ZNSaIiEC1Ev
	movl	$0, -196(%rbp)
	movl	-136(%rbp), %eax
	movslq	%eax, %rsi
	leaq	-197(%rbp), %rcx
	leaq	-196(%rbp), %rdx
	leaq	-96(%rbp), %rax
	movq	%rax, %rdi
.LEHB2:
	call	_ZNSt6vectorIiSaIiEEC1EmRKiRKS0_
.LEHE2:
	leaq	-197(%rbp), %rax
	movq	%rax, %rdi
	call	_ZNSaIiED1Ev
	movl	$0, -192(%rbp)
	movl	-136(%rbp), %eax
	movl	%eax, %edx
	shrl	$31, %edx
	addl	%edx, %eax
	sarl	%eax
	movl	%eax, -132(%rbp)
	movl	$0, -188(%rbp)
.L117:
	movl	-188(%rbp), %eax
	cmpl	-136(%rbp), %eax
	jge	.L116
	movl	-188(%rbp), %eax
	movslq	%eax, %rdx
	leaq	-96(%rbp), %rax
	movq	%rdx, %rsi
	movq	%rax, %rdi
	call	_ZNSt6vectorIiSaIiEEixEm
	movq	%rax, %rbx
	movl	-188(%rbp), %eax
	subl	-132(%rbp), %eax
	movl	%eax, %edx
	movl	-188(%rbp), %eax
	subl	-132(%rbp), %eax
	imull	%edx, %eax
	pxor	%xmm0, %xmm0
	cvtsi2sd	%eax, %xmm0
	movl	-132(%rbp), %eax
	imull	-132(%rbp), %eax
	movl	%eax, %edx
	shrl	$31, %edx
	addl	%edx, %eax
	sarl	%eax
	pxor	%xmm1, %xmm1
	cvtsi2sd	%eax, %xmm1
	divsd	%xmm1, %xmm0
	movsd	.LC5(%rip), %xmm1
	xorpd	%xmm1, %xmm0
	call	exp
	movapd	%xmm0, %xmm1
	movsd	.LC0(%rip), %xmm0
	mulsd	%xmm1, %xmm0
	cvttsd2si	%xmm0, %eax
	movl	%eax, (%rbx)
	movl	-188(%rbp), %eax
	movslq	%eax, %rdx
	leaq	-96(%rbp), %rax
	movq	%rdx, %rsi
	movq	%rax, %rdi
	call	_ZNSt6vectorIiSaIiEEixEm
	movl	(%rax), %eax
	addl	%eax, -192(%rbp)
	addl	$1, -188(%rbp)
	jmp	.L117
.L116:
	movl	$0, -184(%rbp)
.L123:
	movl	-184(%rbp), %eax
	cmpl	-140(%rbp), %eax
	jge	.L118
	movq	-48(%rbp), %rax
	movl	-184(%rbp), %edx
	movslq	%edx, %rdx
	salq	$3, %rdx
	addq	%rdx, %rax
	movq	(%rax), %rax
	movq	%rax, -120(%rbp)
	movl	$0, -180(%rbp)
.L122:
	movl	-180(%rbp), %eax
	cmpl	-144(%rbp), %eax
	jge	.L119
	movq	_ZN12_GLOBAL__N_16strokeE(%rip), %rax
	movl	(%rax), %edx
	movl	-180(%rbp), %eax
	addl	%eax, %edx
	movl	-136(%rbp), %eax
	movl	%eax, %ecx
	shrl	$31, %ecx
	addl	%ecx, %eax
	sarl	%eax
	subl	%eax, %edx
	movl	%edx, %eax
	movl	%eax, -128(%rbp)
	movl	$0, -176(%rbp)
	movl	$0, -172(%rbp)
.L121:
	movl	-172(%rbp), %eax
	cmpl	-136(%rbp), %eax
	jge	.L120
	movq	_ZN12_GLOBAL__N_16strokeE(%rip), %rax
	movl	4(%rax), %edx
	movl	-184(%rbp), %eax
	addl	%eax, %edx
	movl	-128(%rbp), %ecx
	movl	-172(%rbp), %eax
	addl	%eax, %ecx
	movq	_ZN12_GLOBAL__N_13mapE(%rip), %rax
	movl	%ecx, %esi
	movq	%rax, %rdi
.LEHB3:
	call	_ZN3Map8getpixelEii
	movl	%eax, %ebx
	movl	-172(%rbp), %eax
	movslq	%eax, %rdx
	leaq	-96(%rbp), %rax
	movq	%rdx, %rsi
	movq	%rax, %rdi
	call	_ZNSt6vectorIiSaIiEEixEm
	movl	(%rax), %eax
	imull	%ebx, %eax
	addl	%eax, -176(%rbp)
	addl	$1, -172(%rbp)
	jmp	.L121
.L120:
	movl	-176(%rbp), %eax
	cltd
	idivl	-192(%rbp)
	movl	%eax, -176(%rbp)
	movq	-120(%rbp), %rax
	leaq	1(%rax), %rdx
	movq	%rdx, -120(%rbp)
	movl	-176(%rbp), %edx
	movb	%dl, (%rax)
	addl	$1, -180(%rbp)
	jmp	.L122
.L119:
	addl	$1, -184(%rbp)
	jmp	.L123
.L118:
	movl	$0, -168(%rbp)
.L129:
	movl	-168(%rbp), %eax
	cmpl	-140(%rbp), %eax
	jge	.L124
	movq	_ZN12_GLOBAL__N_13mapE(%rip), %rax
	movq	16(%rax), %rdx
	movq	_ZN12_GLOBAL__N_16strokeE(%rip), %rax
	movl	4(%rax), %ecx
	movl	-168(%rbp), %eax
	addl	%ecx, %eax
	cltq
	salq	$3, %rax
	addq	%rdx, %rax
	movq	(%rax), %rdx
	movq	_ZN12_GLOBAL__N_16strokeE(%rip), %rax
	movl	(%rax), %eax
	cltq
	addq	%rdx, %rax
	movq	%rax, -112(%rbp)
	movl	-136(%rbp), %eax
	movl	%eax, %edx
	shrl	$31, %edx
	addl	%edx, %eax
	sarl	%eax
	movl	%eax, %edx
	movl	-168(%rbp), %eax
	subl	%edx, %eax
	movl	%eax, -124(%rbp)
	movl	$0, -164(%rbp)
.L128:
	movl	-164(%rbp), %eax
	cmpl	-144(%rbp), %eax
	jge	.L125
	movl	$0, -160(%rbp)
	movl	$0, -156(%rbp)
.L127:
	movl	-156(%rbp), %eax
	cmpl	-136(%rbp), %eax
	jge	.L126
	movl	-124(%rbp), %edx
	movl	-156(%rbp), %eax
	addl	%eax, %edx
	movl	-164(%rbp), %ecx
	leaq	-64(%rbp), %rax
	movl	%ecx, %esi
	movq	%rax, %rdi
	call	_ZN3Map8getpixelEii
	movl	%eax, %ebx
	movl	-156(%rbp), %eax
	movslq	%eax, %rdx
	leaq	-96(%rbp), %rax
	movq	%rdx, %rsi
	movq	%rax, %rdi
	call	_ZNSt6vectorIiSaIiEEixEm
	movl	(%rax), %eax
	imull	%ebx, %eax
	addl	%eax, -160(%rbp)
	addl	$1, -156(%rbp)
	jmp	.L127
.L126:
	movl	-160(%rbp), %eax
	cltd
	idivl	-192(%rbp)
	movl	%eax, -160(%rbp)
	movq	-112(%rbp), %rax
	leaq	1(%rax), %rdx
	movq	%rdx, -112(%rbp)
	movl	-160(%rbp), %edx
	movb	%dl, (%rax)
	addl	$1, -164(%rbp)
	jmp	.L128
.L125:
	addl	$1, -168(%rbp)
	jmp	.L129
.L124:
	movq	_ZN12_GLOBAL__N_16strokeE(%rip), %rax
	movl	4(%rax), %eax
	movl	%eax, -152(%rbp)
.L135:
	movq	_ZN12_GLOBAL__N_16strokeE(%rip), %rax
	movl	12(%rax), %eax
	cmpl	-152(%rbp), %eax
	jl	.L130
	movq	_ZN12_GLOBAL__N_13mapE(%rip), %rax
	movq	16(%rax), %rax
	movl	-152(%rbp), %edx
	movslq	%edx, %rdx
	salq	$3, %rdx
	addq	%rdx, %rax
	movq	(%rax), %rdx
	movq	_ZN12_GLOBAL__N_16strokeE(%rip), %rax
	movl	(%rax), %eax
	cltq
	addq	%rdx, %rax
	movq	%rax, -104(%rbp)
	movq	_ZN12_GLOBAL__N_16strokeE(%rip), %rax
	movl	(%rax), %eax
	movl	%eax, -148(%rbp)
.L133:
	movq	_ZN12_GLOBAL__N_16strokeE(%rip), %rax
	movl	8(%rax), %eax
	cmpl	-148(%rbp), %eax
	jl	.L131
	movq	-104(%rbp), %rax
	movzbl	(%rax), %eax
	testb	%al, %al
	je	.L132
	movl	_ZN12_GLOBAL__N_15transE(%rip), %eax
	movq	-104(%rbp), %rdx
	movzbl	(%rdx), %edx
	movzbl	%dl, %edx
	movl	$255, %ecx
	subl	%edx, %ecx
	movl	%ecx, %edx
	movl	%eax, %esi
	movl	%edx, %edi
	call	_Z8scaleValii
	movl	%eax, %edi
	movl	_ZN12_GLOBAL__N_15colorE(%rip), %ecx
	movq	_ZN12_GLOBAL__N_13bmpE(%rip), %rax
	movl	-152(%rbp), %edx
	movl	-148(%rbp), %esi
	movl	%edi, %r8d
	movq	%rax, %rdi
	call	_ZN6Bitmap8setpixelEiiii
.L132:
	addq	$1, -104(%rbp)
	addl	$1, -148(%rbp)
	jmp	.L133
.L131:
	movl	-152(%rbp), %eax
	movl	%eax, %edi
	call	_ZN12_GLOBAL__N_16updateEi
.LEHE3:
	shrl	$31, %eax
	testb	%al, %al
	jne	.L144
	addl	$1, -152(%rbp)
	jmp	.L135
.L144:
	nop
.L130:
	leaq	-96(%rbp), %rax
	movq	%rax, %rdi
.LEHB4:
	call	_ZNSt6vectorIiSaIiEED1Ev
.LEHE4:
	leaq	-64(%rbp), %rax
	movq	%rax, %rdi
.LEHB5:
	call	_ZN3MapD1Ev
.LEHE5:
	nop
	movq	-24(%rbp), %rax
	xorq	%fs:40, %rax
	je	.L139
	jmp	.L143
.L141:
	movq	%rax, %rbx
	leaq	-197(%rbp), %rax
	movq	%rax, %rdi
	call	_ZNSaIiED1Ev
	jmp	.L137
.L142:
	movq	%rax, %rbx
	leaq	-96(%rbp), %rax
	movq	%rax, %rdi
	call	_ZNSt6vectorIiSaIiEED1Ev
	jmp	.L137
.L140:
	movq	%rax, %rbx
.L137:
	leaq	-64(%rbp), %rax
	movq	%rax, %rdi
	call	_ZN3MapD1Ev
	movq	%rbx, %rax
	movq	%rax, %rdi
.LEHB6:
	call	_Unwind_Resume
.LEHE6:
.L143:
	call	__stack_chk_fail
.L139:
	addq	$200, %rsp
	popq	%rbx
	popq	%rbp
	.cfi_def_cfa 7, 8
	ret
	.cfi_endproc
.LFE982:
	.globl	__gxx_personality_v0
	.section	.gcc_except_table,"a",@progbits
.LLSDA982:
	.byte	0xff
	.byte	0xff
	.byte	0x1
	.uleb128 .LLSDACSE982-.LLSDACSB982
.LLSDACSB982:
	.uleb128 .LEHB0-.LFB982
	.uleb128 .LEHE0-.LEHB0
	.uleb128 0
	.uleb128 0
	.uleb128 .LEHB1-.LFB982
	.uleb128 .LEHE1-.LEHB1
	.uleb128 .L140-.LFB982
	.uleb128 0
	.uleb128 .LEHB2-.LFB982
	.uleb128 .LEHE2-.LEHB2
	.uleb128 .L141-.LFB982
	.uleb128 0
	.uleb128 .LEHB3-.LFB982
	.uleb128 .LEHE3-.LEHB3
	.uleb128 .L142-.LFB982
	.uleb128 0
	.uleb128 .LEHB4-.LFB982
	.uleb128 .LEHE4-.LEHB4
	.uleb128 .L140-.LFB982
	.uleb128 0
	.uleb128 .LEHB5-.LFB982
	.uleb128 .LEHE5-.LEHB5
	.uleb128 0
	.uleb128 0
	.uleb128 .LEHB6-.LFB982
	.uleb128 .LEHE6-.LEHB6
	.uleb128 0
	.uleb128 0
.LLSDACSE982:
	.text
	.size	_ZN12_GLOBAL__N_110renderBlurEv, .-_ZN12_GLOBAL__N_110renderBlurEv
	.type	_ZN12_GLOBAL__N_116renderWatercolorEv, @function
_ZN12_GLOBAL__N_116renderWatercolorEv:
.LFB983:
	.cfi_startproc
	pushq	%rbp
	.cfi_def_cfa_offset 16
	.cfi_offset 6, -16
	movq	%rsp, %rbp
	.cfi_def_cfa_register 6
	pushq	%rbx
	subq	$88, %rsp
	.cfi_offset 3, -24
	movl	_ZN12_GLOBAL__N_15transE(%rip), %eax
	pxor	%xmm0, %xmm0
	cvtsi2ss	%eax, %xmm0
	movss	%xmm0, -88(%rbp)
	movq	_ZN12_GLOBAL__N_15brushE(%rip), %rax
	movl	60(%rax), %eax
	movl	$2, %edx
	movl	%eax, %ecx
	sall	%cl, %edx
	movl	%edx, %eax
	movl	%eax, -60(%rbp)
	movl	_ZN12_GLOBAL__N_15transE(%rip), %eax
	movl	$255, %edx
	subl	%eax, %edx
	movl	%edx, %eax
	pxor	%xmm0, %xmm0
	cvtsi2ss	%eax, %xmm0
	movl	-60(%rbp), %eax
	sarl	%eax
	addl	$1, %eax
	pxor	%xmm1, %xmm1
	cvtsi2ss	%eax, %xmm1
	divss	%xmm1, %xmm0
	movss	%xmm0, -56(%rbp)
	movb	$0, -93(%rbp)
	movl	$0, -84(%rbp)
	movq	_ZN12_GLOBAL__N_16strokeE(%rip), %rax
	movl	4(%rax), %eax
	movl	%eax, -80(%rbp)
.L150:
	movq	_ZN12_GLOBAL__N_16strokeE(%rip), %rax
	movl	12(%rax), %eax
	cmpl	-80(%rbp), %eax
	jl	.L146
	movq	_ZN12_GLOBAL__N_16strokeE(%rip), %rax
	movl	(%rax), %eax
	movl	%eax, -76(%rbp)
.L149:
	movq	_ZN12_GLOBAL__N_16strokeE(%rip), %rax
	movl	8(%rax), %eax
	cmpl	-76(%rbp), %eax
	jl	.L147
	movq	_ZN12_GLOBAL__N_13mapE(%rip), %rax
	movl	-80(%rbp), %edx
	movl	-76(%rbp), %ecx
	movl	%ecx, %esi
	movq	%rax, %rdi
	call	_ZN3Map8getpixelEii
	testl	%eax, %eax
	setne	%al
	testb	%al, %al
	je	.L148
	movl	_ZN12_GLOBAL__N_15transE(%rip), %edi
	movl	_ZN12_GLOBAL__N_15colorE(%rip), %ecx
	movq	_ZN12_GLOBAL__N_13bmpE(%rip), %rax
	movl	-80(%rbp), %edx
	movl	-76(%rbp), %esi
	movl	%edi, %r8d
	movq	%rax, %rdi
	call	_ZN6Bitmap8setpixelEiiii
.L148:
	addl	$1, -76(%rbp)
	jmp	.L149
.L147:
	addl	$1, -80(%rbp)
	jmp	.L150
.L146:
	movl	$0, -72(%rbp)
.L166:
	movl	-72(%rbp), %eax
	cmpl	-60(%rbp), %eax
	jge	.L167
	addl	$1, -84(%rbp)
	movq	_ZN12_GLOBAL__N_16strokeE(%rip), %rax
	movl	4(%rax), %eax
	movl	-84(%rbp), %edx
	andl	$1, %edx
	addl	%edx, %eax
	movl	%eax, -68(%rbp)
.L161:
	movq	_ZN12_GLOBAL__N_16strokeE(%rip), %rax
	movl	12(%rax), %eax
	subl	$1, %eax
	cmpl	-68(%rbp), %eax
	jle	.L152
	movq	_ZN12_GLOBAL__N_16strokeE(%rip), %rax
	movl	(%rax), %eax
	movl	-84(%rbp), %edx
	andl	$1, %edx
	addl	%edx, %eax
	movl	%eax, -64(%rbp)
.L160:
	movq	_ZN12_GLOBAL__N_16strokeE(%rip), %rax
	movl	8(%rax), %eax
	subl	$1, %eax
	cmpl	-64(%rbp), %eax
	jle	.L153
	call	_ZN9ExtraMath3rndEv
	andl	$3, %eax
	testl	%eax, %eax
	sete	%al
	movzbl	%al, %edx
	movl	-68(%rbp), %eax
	addl	%edx, %eax
	movl	%eax, -52(%rbp)
	movq	_ZN12_GLOBAL__N_13mapE(%rip), %rax
	movq	16(%rax), %rax
	movl	-52(%rbp), %edx
	movslq	%edx, %rdx
	salq	$3, %rdx
	addq	%rdx, %rax
	movq	(%rax), %rdx
	movl	-64(%rbp), %eax
	cltq
	addq	%rdx, %rax
	movq	%rax, -48(%rbp)
	movq	_ZN12_GLOBAL__N_13mapE(%rip), %rax
	movq	16(%rax), %rax
	movl	-52(%rbp), %edx
	movslq	%edx, %rdx
	salq	$3, %rdx
	addq	%rdx, %rax
	movq	(%rax), %rax
	movl	-64(%rbp), %edx
	movslq	%edx, %rdx
	addq	$1, %rdx
	addq	%rdx, %rax
	movq	%rax, -40(%rbp)
	movq	_ZN12_GLOBAL__N_13mapE(%rip), %rax
	movq	16(%rax), %rax
	movl	-52(%rbp), %edx
	movslq	%edx, %rdx
	addq	$1, %rdx
	salq	$3, %rdx
	addq	%rdx, %rax
	movq	(%rax), %rdx
	movl	-64(%rbp), %eax
	cltq
	addq	%rdx, %rax
	movq	%rax, -32(%rbp)
	movq	_ZN12_GLOBAL__N_13mapE(%rip), %rax
	movq	16(%rax), %rax
	movl	-52(%rbp), %edx
	movslq	%edx, %rdx
	addq	$1, %rdx
	salq	$3, %rdx
	addq	%rdx, %rax
	movq	(%rax), %rax
	movl	-64(%rbp), %edx
	movslq	%edx, %rdx
	addq	$1, %rdx
	addq	%rdx, %rax
	movq	%rax, -24(%rbp)
	movq	-48(%rbp), %rax
	movzbl	(%rax), %eax
	andl	$1, %eax
	movl	%eax, %edx
	movq	-48(%rbp), %rax
	movb	%dl, (%rax)
	movq	-40(%rbp), %rax
	movzbl	(%rax), %eax
	andl	$1, %eax
	movl	%eax, %edx
	movq	-40(%rbp), %rax
	movb	%dl, (%rax)
	movq	-32(%rbp), %rax
	movzbl	(%rax), %eax
	andl	$1, %eax
	movl	%eax, %edx
	movq	-32(%rbp), %rax
	movb	%dl, (%rax)
	movq	-24(%rbp), %rax
	movzbl	(%rax), %eax
	andl	$1, %eax
	movl	%eax, %edx
	movq	-24(%rbp), %rax
	movb	%dl, (%rax)
	movq	-48(%rbp), %rax
	movzbl	(%rax), %edx
	movq	-40(%rbp), %rax
	movzbl	(%rax), %eax
	orl	%eax, %edx
	movq	-32(%rbp), %rax
	movzbl	(%rax), %eax
	orl	%eax, %edx
	movq	-24(%rbp), %rax
	movzbl	(%rax), %eax
	orl	%edx, %eax
	testb	%al, %al
	je	.L154
	movb	$1, -93(%rbp)
.L154:
	movq	-48(%rbp), %rax
	movzbl	(%rax), %eax
	movb	%al, -92(%rbp)
	movq	-40(%rbp), %rax
	movzbl	(%rax), %eax
	movb	%al, -91(%rbp)
	movq	-32(%rbp), %rax
	movzbl	(%rax), %eax
	movb	%al, -90(%rbp)
	movq	-24(%rbp), %rax
	movzbl	(%rax), %eax
	movb	%al, -89(%rbp)
	movq	-24(%rbp), %rcx
	movq	-32(%rbp), %rdx
	movq	-40(%rbp), %rsi
	movq	-48(%rbp), %rax
	movq	%rax, %rdi
	call	_ZN12_GLOBAL__N_19growBlockEPhS0_S0_S0_
	movq	-48(%rbp), %rax
	movzbl	(%rax), %eax
	movzbl	%al, %ebx
	call	_ZN9ExtraMath3rndEv
	andl	$15, %eax
	testl	%eax, %eax
	sete	%al
	movzbl	%al, %eax
	andl	%ebx, %eax
	testl	%eax, %eax
	setne	%al
	testb	%al, %al
	je	.L155
	movq	-48(%rbp), %rax
	movb	$1, (%rax)
	movq	-40(%rbp), %rax
	movb	$1, (%rax)
	movq	-32(%rbp), %rax
	movb	$1, (%rax)
	movq	-24(%rbp), %rax
	movb	$1, (%rax)
	subl	$1, -84(%rbp)
	subl	$1, -84(%rbp)
.L155:
	movq	-48(%rbp), %rax
	movzbl	(%rax), %eax
	testb	%al, %al
	je	.L156
	cmpb	$0, -92(%rbp)
	jne	.L156
	movss	-88(%rbp), %xmm0
	cvttss2si	%xmm0, %edi
	movl	_ZN12_GLOBAL__N_15colorE(%rip), %ecx
	movq	_ZN12_GLOBAL__N_13bmpE(%rip), %rax
	movl	-52(%rbp), %edx
	movl	-64(%rbp), %esi
	movl	%edi, %r8d
	movq	%rax, %rdi
	call	_ZN6Bitmap8setpixelEiiii
.L156:
	movq	-40(%rbp), %rax
	movzbl	(%rax), %eax
	testb	%al, %al
	je	.L157
	cmpb	$0, -91(%rbp)
	jne	.L157
	movss	-88(%rbp), %xmm0
	cvttss2si	%xmm0, %edi
	movl	_ZN12_GLOBAL__N_15colorE(%rip), %ecx
	movl	-64(%rbp), %eax
	leal	1(%rax), %esi
	movq	_ZN12_GLOBAL__N_13bmpE(%rip), %rax
	movl	-52(%rbp), %edx
	movl	%edi, %r8d
	movq	%rax, %rdi
	call	_ZN6Bitmap8setpixelEiiii
.L157:
	movq	-32(%rbp), %rax
	movzbl	(%rax), %eax
	testb	%al, %al
	je	.L158
	cmpb	$0, -90(%rbp)
	jne	.L158
	movss	-88(%rbp), %xmm0
	cvttss2si	%xmm0, %ecx
	movl	_ZN12_GLOBAL__N_15colorE(%rip), %edx
	movl	-52(%rbp), %eax
	leal	1(%rax), %edi
	movq	_ZN12_GLOBAL__N_13bmpE(%rip), %rax
	movl	-64(%rbp), %esi
	movl	%ecx, %r8d
	movl	%edx, %ecx
	movl	%edi, %edx
	movq	%rax, %rdi
	call	_ZN6Bitmap8setpixelEiiii
.L158:
	movq	-24(%rbp), %rax
	movzbl	(%rax), %eax
	testb	%al, %al
	je	.L159
	cmpb	$0, -89(%rbp)
	jne	.L159
	movss	-88(%rbp), %xmm0
	cvttss2si	%xmm0, %ecx
	movl	_ZN12_GLOBAL__N_15colorE(%rip), %edx
	movl	-52(%rbp), %eax
	leal	1(%rax), %edi
	movl	-64(%rbp), %eax
	leal	1(%rax), %esi
	movq	_ZN12_GLOBAL__N_13bmpE(%rip), %rax
	movl	%ecx, %r8d
	movl	%edx, %ecx
	movl	%edi, %edx
	movq	%rax, %rdi
	call	_ZN6Bitmap8setpixelEiiii
.L159:
	addl	$2, -64(%rbp)
	jmp	.L160
.L153:
	addl	$2, -68(%rbp)
	jmp	.L161
.L152:
	movzbl	-93(%rbp), %eax
	xorl	$1, %eax
	testb	%al, %al
	jne	.L168
	movss	-88(%rbp), %xmm0
	addss	-56(%rbp), %xmm0
	movss	%xmm0, -88(%rbp)
	movss	-88(%rbp), %xmm0
	ucomiss	.LC4(%rip), %xmm0
	ja	.L169
	movl	-72(%rbp), %eax
	movl	%eax, %edi
	call	_ZN12_GLOBAL__N_16updateEi
	shrl	$31, %eax
	testb	%al, %al
	jne	.L170
	addl	$1, -72(%rbp)
	jmp	.L166
.L168:
	nop
	jmp	.L167
.L169:
	nop
	jmp	.L167
.L170:
	nop
.L167:
	nop
	addq	$88, %rsp
	popq	%rbx
	popq	%rbp
	.cfi_def_cfa 7, 8
	ret
	.cfi_endproc
.LFE983:
	.size	_ZN12_GLOBAL__N_116renderWatercolorEv, .-_ZN12_GLOBAL__N_116renderWatercolorEv
	.type	_ZN12_GLOBAL__N_111renderChalkEv, @function
_ZN12_GLOBAL__N_111renderChalkEv:
.LFB984:
	.cfi_startproc
	pushq	%rbp
	.cfi_def_cfa_offset 16
	.cfi_offset 6, -16
	movq	%rsp, %rbp
	.cfi_def_cfa_register 6
	pushq	%rbx
	subq	$88, %rsp
	.cfi_offset 3, -24
	movss	.LC4(%rip), %xmm0
	movss	%xmm0, -88(%rbp)
	movq	_ZN12_GLOBAL__N_15brushE(%rip), %rax
	movl	64(%rax), %eax
	movl	$3, %edx
	movl	%eax, %ecx
	sall	%cl, %edx
	movl	%edx, %eax
	movl	%eax, -84(%rbp)
	movl	_ZN12_GLOBAL__N_15transE(%rip), %eax
	movl	$255, %edx
	subl	%eax, %edx
	movl	%edx, %eax
	pxor	%xmm0, %xmm0
	cvtsi2ss	%eax, %xmm0
	movl	-84(%rbp), %eax
	sarl	%eax
	addl	$1, %eax
	pxor	%xmm1, %xmm1
	cvtsi2ss	%eax, %xmm1
	divss	%xmm1, %xmm0
	movss	%xmm0, -52(%rbp)
	movb	$0, -93(%rbp)
	movq	_ZN12_GLOBAL__N_15brushE(%rip), %rax
	movl	64(%rax), %eax
	testl	%eax, %eax
	jne	.L172
	movl	$1, -84(%rbp)
	movl	_ZN12_GLOBAL__N_15transE(%rip), %eax
	pxor	%xmm0, %xmm0
	cvtsi2ss	%eax, %xmm0
	movss	%xmm0, -88(%rbp)
.L172:
	movl	$0, -80(%rbp)
.L202:
	movl	-80(%rbp), %eax
	cmpl	-84(%rbp), %eax
	jge	.L171
	movq	_ZN12_GLOBAL__N_16strokeE(%rip), %rax
	movl	4(%rax), %eax
	movl	-80(%rbp), %edx
	andl	$1, %edx
	addl	%edx, %eax
	movl	%eax, -76(%rbp)
.L190:
	movq	_ZN12_GLOBAL__N_16strokeE(%rip), %rax
	movl	12(%rax), %eax
	cmpl	-76(%rbp), %eax
	jle	.L174
	movq	_ZN12_GLOBAL__N_16strokeE(%rip), %rax
	movl	(%rax), %eax
	movl	-80(%rbp), %edx
	andl	$1, %edx
	addl	%edx, %eax
	movl	%eax, -72(%rbp)
.L189:
	movq	_ZN12_GLOBAL__N_16strokeE(%rip), %rax
	movl	8(%rax), %eax
	cmpl	-72(%rbp), %eax
	jle	.L175
	movq	_ZN12_GLOBAL__N_13mapE(%rip), %rax
	movq	16(%rax), %rax
	movl	-76(%rbp), %edx
	movslq	%edx, %rdx
	salq	$3, %rdx
	addq	%rdx, %rax
	movq	(%rax), %rdx
	movl	-72(%rbp), %eax
	cltq
	addq	%rdx, %rax
	movq	%rax, -48(%rbp)
	movq	_ZN12_GLOBAL__N_13mapE(%rip), %rax
	movq	16(%rax), %rax
	movl	-76(%rbp), %edx
	movslq	%edx, %rdx
	salq	$3, %rdx
	addq	%rdx, %rax
	movq	(%rax), %rax
	movl	-72(%rbp), %edx
	movslq	%edx, %rdx
	addq	$1, %rdx
	addq	%rdx, %rax
	movq	%rax, -40(%rbp)
	movq	_ZN12_GLOBAL__N_13mapE(%rip), %rax
	movq	16(%rax), %rax
	movl	-76(%rbp), %edx
	movslq	%edx, %rdx
	addq	$1, %rdx
	salq	$3, %rdx
	addq	%rdx, %rax
	movq	(%rax), %rdx
	movl	-72(%rbp), %eax
	cltq
	addq	%rdx, %rax
	movq	%rax, -32(%rbp)
	movq	_ZN12_GLOBAL__N_13mapE(%rip), %rax
	movq	16(%rax), %rax
	movl	-76(%rbp), %edx
	movslq	%edx, %rdx
	addq	$1, %rdx
	salq	$3, %rdx
	addq	%rdx, %rax
	movq	(%rax), %rax
	movl	-72(%rbp), %edx
	movslq	%edx, %rdx
	addq	$1, %rdx
	addq	%rdx, %rax
	movq	%rax, -24(%rbp)
	movq	-48(%rbp), %rax
	movzbl	(%rax), %eax
	andl	$1, %eax
	movl	%eax, %edx
	movq	-48(%rbp), %rax
	movb	%dl, (%rax)
	movq	-40(%rbp), %rax
	movzbl	(%rax), %eax
	andl	$1, %eax
	movl	%eax, %edx
	movq	-40(%rbp), %rax
	movb	%dl, (%rax)
	movq	-32(%rbp), %rax
	movzbl	(%rax), %eax
	andl	$1, %eax
	movl	%eax, %edx
	movq	-32(%rbp), %rax
	movb	%dl, (%rax)
	movq	-24(%rbp), %rax
	movzbl	(%rax), %eax
	andl	$1, %eax
	movl	%eax, %edx
	movq	-24(%rbp), %rax
	movb	%dl, (%rax)
	movq	-48(%rbp), %rax
	movzbl	(%rax), %edx
	movq	-40(%rbp), %rax
	movzbl	(%rax), %eax
	orl	%eax, %edx
	movq	-32(%rbp), %rax
	movzbl	(%rax), %eax
	orl	%eax, %edx
	movq	-24(%rbp), %rax
	movzbl	(%rax), %eax
	orl	%edx, %eax
	testb	%al, %al
	je	.L176
	movb	$1, -93(%rbp)
.L176:
	movq	-48(%rbp), %rax
	movzbl	(%rax), %eax
	movb	%al, -92(%rbp)
	movq	-40(%rbp), %rax
	movzbl	(%rax), %eax
	movb	%al, -91(%rbp)
	movq	-32(%rbp), %rax
	movzbl	(%rax), %eax
	movb	%al, -90(%rbp)
	movq	-24(%rbp), %rax
	movzbl	(%rax), %eax
	movb	%al, -89(%rbp)
	movq	-24(%rbp), %rcx
	movq	-32(%rbp), %rdx
	movq	-40(%rbp), %rsi
	movq	-48(%rbp), %rax
	movq	%rax, %rdi
	call	_ZN12_GLOBAL__N_111shrinkBlockEPhS0_S0_S0_
	movl	$0, -68(%rbp)
	movq	-48(%rbp), %rax
	movzbl	(%rax), %eax
	testb	%al, %al
	jne	.L177
	cmpb	$0, -92(%rbp)
	je	.L177
	movss	-88(%rbp), %xmm0
	cvttss2si	%xmm0, %ebx
	call	_ZN9ExtraMath3rndEv
	andl	$63, %eax
	addl	%ebx, %eax
	subl	$32, %eax
	movl	%eax, -68(%rbp)
	cmpl	$0, -68(%rbp)
	jns	.L178
	movl	$0, -68(%rbp)
.L178:
	cmpl	$255, -68(%rbp)
	jle	.L179
	movl	$255, -68(%rbp)
.L179:
	movl	_ZN12_GLOBAL__N_15colorE(%rip), %ecx
	movq	_ZN12_GLOBAL__N_13bmpE(%rip), %rax
	movl	-68(%rbp), %edi
	movl	-76(%rbp), %edx
	movl	-72(%rbp), %esi
	movl	%edi, %r8d
	movq	%rax, %rdi
	call	_ZN6Bitmap8setpixelEiiii
.L177:
	movq	-40(%rbp), %rax
	movzbl	(%rax), %eax
	testb	%al, %al
	jne	.L180
	cmpb	$0, -91(%rbp)
	je	.L180
	movss	-88(%rbp), %xmm0
	cvttss2si	%xmm0, %ebx
	call	_ZN9ExtraMath3rndEv
	andl	$63, %eax
	addl	%ebx, %eax
	subl	$32, %eax
	movl	%eax, -68(%rbp)
	cmpl	$0, -68(%rbp)
	jns	.L181
	movl	$0, -68(%rbp)
.L181:
	cmpl	$255, -68(%rbp)
	jle	.L182
	movl	$255, -68(%rbp)
.L182:
	movl	_ZN12_GLOBAL__N_15colorE(%rip), %ecx
	movl	-72(%rbp), %eax
	leal	1(%rax), %esi
	movq	_ZN12_GLOBAL__N_13bmpE(%rip), %rax
	movl	-68(%rbp), %edi
	movl	-76(%rbp), %edx
	movl	%edi, %r8d
	movq	%rax, %rdi
	call	_ZN6Bitmap8setpixelEiiii
.L180:
	movq	-32(%rbp), %rax
	movzbl	(%rax), %eax
	testb	%al, %al
	jne	.L183
	cmpb	$0, -90(%rbp)
	je	.L183
	movss	-88(%rbp), %xmm0
	cvttss2si	%xmm0, %ebx
	call	_ZN9ExtraMath3rndEv
	andl	$63, %eax
	addl	%ebx, %eax
	subl	$32, %eax
	movl	%eax, -68(%rbp)
	cmpl	$0, -68(%rbp)
	jns	.L184
	movl	$0, -68(%rbp)
.L184:
	cmpl	$255, -68(%rbp)
	jle	.L185
	movl	$255, -68(%rbp)
.L185:
	movl	_ZN12_GLOBAL__N_15colorE(%rip), %edx
	movl	-76(%rbp), %eax
	leal	1(%rax), %edi
	movq	_ZN12_GLOBAL__N_13bmpE(%rip), %rax
	movl	-68(%rbp), %ecx
	movl	-72(%rbp), %esi
	movl	%ecx, %r8d
	movl	%edx, %ecx
	movl	%edi, %edx
	movq	%rax, %rdi
	call	_ZN6Bitmap8setpixelEiiii
.L183:
	movq	-24(%rbp), %rax
	movzbl	(%rax), %eax
	testb	%al, %al
	jne	.L186
	cmpb	$0, -89(%rbp)
	je	.L186
	movss	-88(%rbp), %xmm0
	cvttss2si	%xmm0, %ebx
	call	_ZN9ExtraMath3rndEv
	andl	$63, %eax
	addl	%ebx, %eax
	subl	$32, %eax
	movl	%eax, -68(%rbp)
	cmpl	$0, -68(%rbp)
	jns	.L187
	movl	$0, -68(%rbp)
.L187:
	cmpl	$255, -68(%rbp)
	jle	.L188
	movl	$255, -68(%rbp)
.L188:
	movl	_ZN12_GLOBAL__N_15colorE(%rip), %edx
	movl	-76(%rbp), %eax
	leal	1(%rax), %edi
	movl	-72(%rbp), %eax
	leal	1(%rax), %esi
	movq	_ZN12_GLOBAL__N_13bmpE(%rip), %rax
	movl	-68(%rbp), %ecx
	movl	%ecx, %r8d
	movl	%edx, %ecx
	movl	%edi, %edx
	movq	%rax, %rdi
	call	_ZN6Bitmap8setpixelEiiii
.L186:
	addl	$2, -72(%rbp)
	jmp	.L189
.L175:
	addl	$2, -76(%rbp)
	jmp	.L190
.L174:
	movzbl	-93(%rbp), %eax
	xorl	$1, %eax
	testb	%al, %al
	jne	.L205
	movss	-88(%rbp), %xmm0
	subss	-52(%rbp), %xmm0
	movss	%xmm0, -88(%rbp)
	movl	_ZN12_GLOBAL__N_15transE(%rip), %eax
	pxor	%xmm0, %xmm0
	cvtsi2ss	%eax, %xmm0
	ucomiss	-88(%rbp), %xmm0
	jbe	.L204
	movl	_ZN12_GLOBAL__N_15transE(%rip), %eax
	pxor	%xmm0, %xmm0
	cvtsi2ss	%eax, %xmm0
	movss	%xmm0, -88(%rbp)
	movq	_ZN12_GLOBAL__N_16strokeE(%rip), %rax
	movl	4(%rax), %eax
	movl	%eax, -64(%rbp)
.L200:
	movq	_ZN12_GLOBAL__N_16strokeE(%rip), %rax
	movl	12(%rax), %eax
	cmpl	-64(%rbp), %eax
	jl	.L206
	movq	_ZN12_GLOBAL__N_16strokeE(%rip), %rax
	movl	(%rax), %eax
	movl	%eax, -60(%rbp)
.L199:
	movq	_ZN12_GLOBAL__N_16strokeE(%rip), %rax
	movl	8(%rax), %eax
	cmpl	-60(%rbp), %eax
	jl	.L195
	movq	_ZN12_GLOBAL__N_13mapE(%rip), %rax
	movl	-64(%rbp), %edx
	movl	-60(%rbp), %ecx
	movl	%ecx, %esi
	movq	%rax, %rdi
	call	_ZN3Map8getpixelEii
	testl	%eax, %eax
	setne	%al
	testb	%al, %al
	je	.L196
	movss	-88(%rbp), %xmm0
	cvttss2si	%xmm0, %ebx
	call	_ZN9ExtraMath3rndEv
	andl	$63, %eax
	addl	%ebx, %eax
	subl	$32, %eax
	movl	%eax, -56(%rbp)
	cmpl	$0, -56(%rbp)
	jns	.L197
	movl	$0, -56(%rbp)
.L197:
	cmpl	$255, -56(%rbp)
	jle	.L198
	movl	$255, -56(%rbp)
.L198:
	movl	_ZN12_GLOBAL__N_15colorE(%rip), %ecx
	movq	_ZN12_GLOBAL__N_13bmpE(%rip), %rax
	movl	-56(%rbp), %edi
	movl	-64(%rbp), %edx
	movl	-60(%rbp), %esi
	movl	%edi, %r8d
	movq	%rax, %rdi
	call	_ZN6Bitmap8setpixelEiiii
.L196:
	addl	$1, -60(%rbp)
	jmp	.L199
.L195:
	addl	$1, -64(%rbp)
	jmp	.L200
.L204:
	movl	-80(%rbp), %eax
	movl	%eax, %edi
	call	_ZN12_GLOBAL__N_16updateEi
	shrl	$31, %eax
	testb	%al, %al
	jne	.L207
	addl	$1, -80(%rbp)
	jmp	.L202
.L205:
	nop
	jmp	.L171
.L206:
	nop
	jmp	.L171
.L207:
	nop
.L171:
	addq	$88, %rsp
	popq	%rbx
	popq	%rbp
	.cfi_def_cfa 7, 8
	ret
	.cfi_endproc
.LFE984:
	.size	_ZN12_GLOBAL__N_111renderChalkEv, .-_ZN12_GLOBAL__N_111renderChalkEv
	.type	_ZN12_GLOBAL__N_113renderTextureEv, @function
_ZN12_GLOBAL__N_113renderTextureEv:
.LFB985:
	.cfi_startproc
	.cfi_personality 0x3,__gxx_personality_v0
	.cfi_lsda 0x3,.LLSDA985
	pushq	%rbp
	.cfi_def_cfa_offset 16
	.cfi_offset 6, -16
	movq	%rsp, %rbp
	.cfi_def_cfa_register 6
	pushq	%rbx
	subq	$248, %rsp
	.cfi_offset 3, -24
	movq	%fs:40, %rax
	movq	%rax, -24(%rbp)
	xorl	%eax, %eax
	movss	.LC4(%rip), %xmm0
	movss	%xmm0, -240(%rbp)
	movq	_ZN12_GLOBAL__N_15brushE(%rip), %rax
	movl	68(%rax), %eax
	movl	$3, %edx
	movl	%eax, %ecx
	sall	%cl, %edx
	movl	%edx, %eax
	movl	%eax, -216(%rbp)
	movl	_ZN12_GLOBAL__N_15transE(%rip), %eax
	movl	$255, %edx
	subl	%eax, %edx
	movl	%edx, %eax
	pxor	%xmm0, %xmm0
	cvtsi2ss	%eax, %xmm0
	movl	-216(%rbp), %eax
	sarl	%eax
	addl	$1, %eax
	pxor	%xmm1, %xmm1
	cvtsi2ss	%eax, %xmm1
	divss	%xmm1, %xmm0
	movss	%xmm0, -212(%rbp)
	movb	$0, -245(%rbp)
	movl	$256, -208(%rbp)
	movl	$256, -204(%rbp)
	movl	-204(%rbp), %edx
	movl	-208(%rbp), %ecx
	leaq	-160(%rbp), %rax
	movl	%ecx, %esi
	movq	%rax, %rdi
.LEHB7:
	call	_ZN3MapC1Eii
.LEHE7:
	movl	-204(%rbp), %edx
	movl	-208(%rbp), %ecx
	leaq	-128(%rbp), %rax
	movl	%ecx, %esi
	movq	%rax, %rdi
.LEHB8:
	call	_ZN3MapC1Eii
.LEHE8:
	movl	-204(%rbp), %edx
	movl	-208(%rbp), %ecx
	leaq	-96(%rbp), %rax
	movl	%ecx, %esi
	movq	%rax, %rdi
.LEHB9:
	call	_ZN3MapC1Eii
.LEHE9:
	movl	-204(%rbp), %edx
	movl	-208(%rbp), %ecx
	leaq	-64(%rbp), %rax
	movl	%ecx, %esi
	movq	%rax, %rdi
.LEHB10:
	call	_ZN3MapC1Eii
.LEHE10:
	movq	_ZN12_GLOBAL__N_15brushE(%rip), %rax
	movl	76(%rax), %eax
	addl	$1, %eax
	sall	$10, %eax
	movl	%eax, %edx
	leaq	-160(%rbp), %rax
	movl	%edx, %esi
	movq	%rax, %rdi
.LEHB11:
	call	_ZN7Fractal6plasmaEP3Mapi
	movq	_ZN12_GLOBAL__N_15brushE(%rip), %rax
	movl	76(%rax), %eax
	addl	$1, %eax
	sall	$10, %eax
	movl	%eax, %edx
	leaq	-96(%rbp), %rax
	movl	%edx, %esi
	movq	%rax, %rdi
	call	_ZN7Fractal6plasmaEP3Mapi
	movq	_ZN12_GLOBAL__N_15brushE(%rip), %rax
	movl	76(%rax), %eax
	addl	$1, %eax
	sall	$10, %eax
	movl	%eax, %edx
	leaq	-64(%rbp), %rax
	movl	%edx, %esi
	movq	%rax, %rdi
	call	_ZN7Fractal6plasmaEP3Mapi
	movq	_ZN12_GLOBAL__N_15brushE(%rip), %rax
	movl	72(%rax), %eax
	sall	$2, %eax
	pxor	%xmm0, %xmm0
	cvtsi2ss	%eax, %xmm0
	leaq	-64(%rbp), %rcx
	leaq	-96(%rbp), %rdx
	leaq	-128(%rbp), %rsi
	leaq	-160(%rbp), %rax
	movl	$100, %r8d
	movq	%rax, %rdi
	call	_ZN7Fractal6marbleEP3MapS1_S1_S1_fi
	leaq	-128(%rbp), %rax
	movq	%rax, -200(%rbp)
	movl	$0, -236(%rbp)
.L224:
	movl	-236(%rbp), %eax
	cmpl	-216(%rbp), %eax
	jge	.L209
	movss	-240(%rbp), %xmm0
	subss	-212(%rbp), %xmm0
	movss	%xmm0, -240(%rbp)
	movl	_ZN12_GLOBAL__N_15transE(%rip), %eax
	pxor	%xmm0, %xmm0
	cvtsi2ss	%eax, %xmm0
	ucomiss	-240(%rbp), %xmm0
	jbe	.L255
	movl	_ZN12_GLOBAL__N_15transE(%rip), %eax
	pxor	%xmm0, %xmm0
	cvtsi2ss	%eax, %xmm0
	movss	%xmm0, -240(%rbp)
	jmp	.L209
.L255:
	movb	$0, -245(%rbp)
	movq	_ZN12_GLOBAL__N_16strokeE(%rip), %rax
	movl	4(%rax), %eax
	movl	-236(%rbp), %edx
	andl	$1, %edx
	addl	%edx, %eax
	movl	%eax, -232(%rbp)
.L220:
	movq	_ZN12_GLOBAL__N_16strokeE(%rip), %rax
	movl	12(%rax), %eax
	cmpl	-232(%rbp), %eax
	jle	.L212
	movq	_ZN12_GLOBAL__N_16strokeE(%rip), %rax
	movl	(%rax), %eax
	movl	-236(%rbp), %edx
	andl	$1, %edx
	addl	%edx, %eax
	movl	%eax, -228(%rbp)
.L219:
	movq	_ZN12_GLOBAL__N_16strokeE(%rip), %rax
	movl	8(%rax), %eax
	cmpl	-228(%rbp), %eax
	jle	.L213
	movq	_ZN12_GLOBAL__N_13mapE(%rip), %rax
	movq	16(%rax), %rax
	movl	-232(%rbp), %edx
	movslq	%edx, %rdx
	salq	$3, %rdx
	addq	%rdx, %rax
	movq	(%rax), %rdx
	movl	-228(%rbp), %eax
	cltq
	addq	%rdx, %rax
	movq	%rax, -192(%rbp)
	movq	_ZN12_GLOBAL__N_13mapE(%rip), %rax
	movq	16(%rax), %rax
	movl	-232(%rbp), %edx
	movslq	%edx, %rdx
	salq	$3, %rdx
	addq	%rdx, %rax
	movq	(%rax), %rax
	movl	-228(%rbp), %edx
	movslq	%edx, %rdx
	addq	$1, %rdx
	addq	%rdx, %rax
	movq	%rax, -184(%rbp)
	movq	_ZN12_GLOBAL__N_13mapE(%rip), %rax
	movq	16(%rax), %rax
	movl	-232(%rbp), %edx
	movslq	%edx, %rdx
	addq	$1, %rdx
	salq	$3, %rdx
	addq	%rdx, %rax
	movq	(%rax), %rdx
	movl	-228(%rbp), %eax
	cltq
	addq	%rdx, %rax
	movq	%rax, -176(%rbp)
	movq	_ZN12_GLOBAL__N_13mapE(%rip), %rax
	movq	16(%rax), %rax
	movl	-232(%rbp), %edx
	movslq	%edx, %rdx
	addq	$1, %rdx
	salq	$3, %rdx
	addq	%rdx, %rax
	movq	(%rax), %rax
	movl	-228(%rbp), %edx
	movslq	%edx, %rdx
	addq	$1, %rdx
	addq	%rdx, %rax
	movq	%rax, -168(%rbp)
	movq	-192(%rbp), %rax
	movzbl	(%rax), %eax
	andl	$1, %eax
	movl	%eax, %edx
	movq	-192(%rbp), %rax
	movb	%dl, (%rax)
	movq	-184(%rbp), %rax
	movzbl	(%rax), %eax
	andl	$1, %eax
	movl	%eax, %edx
	movq	-184(%rbp), %rax
	movb	%dl, (%rax)
	movq	-176(%rbp), %rax
	movzbl	(%rax), %eax
	andl	$1, %eax
	movl	%eax, %edx
	movq	-176(%rbp), %rax
	movb	%dl, (%rax)
	movq	-168(%rbp), %rax
	movzbl	(%rax), %eax
	andl	$1, %eax
	movl	%eax, %edx
	movq	-168(%rbp), %rax
	movb	%dl, (%rax)
	movq	_ZN12_GLOBAL__N_13mapE(%rip), %rax
	movq	16(%rax), %rax
	movl	-232(%rbp), %edx
	movslq	%edx, %rdx
	salq	$3, %rdx
	addq	%rdx, %rax
	movq	(%rax), %rdx
	movl	-228(%rbp), %eax
	cltq
	addq	%rdx, %rax
	movq	%rax, -192(%rbp)
	movq	_ZN12_GLOBAL__N_13mapE(%rip), %rax
	movq	16(%rax), %rax
	movl	-232(%rbp), %edx
	movslq	%edx, %rdx
	salq	$3, %rdx
	addq	%rdx, %rax
	movq	(%rax), %rax
	movl	-228(%rbp), %edx
	movslq	%edx, %rdx
	addq	$1, %rdx
	addq	%rdx, %rax
	movq	%rax, -184(%rbp)
	movq	_ZN12_GLOBAL__N_13mapE(%rip), %rax
	movq	16(%rax), %rax
	movl	-232(%rbp), %edx
	movslq	%edx, %rdx
	addq	$1, %rdx
	salq	$3, %rdx
	addq	%rdx, %rax
	movq	(%rax), %rdx
	movl	-228(%rbp), %eax
	cltq
	addq	%rdx, %rax
	movq	%rax, -176(%rbp)
	movq	_ZN12_GLOBAL__N_13mapE(%rip), %rax
	movq	16(%rax), %rax
	movl	-232(%rbp), %edx
	movslq	%edx, %rdx
	addq	$1, %rdx
	salq	$3, %rdx
	addq	%rdx, %rax
	movq	(%rax), %rax
	movl	-228(%rbp), %edx
	movslq	%edx, %rdx
	addq	$1, %rdx
	addq	%rdx, %rax
	movq	%rax, -168(%rbp)
	movq	-192(%rbp), %rax
	movzbl	(%rax), %edx
	movq	-184(%rbp), %rax
	movzbl	(%rax), %eax
	orl	%eax, %edx
	movq	-176(%rbp), %rax
	movzbl	(%rax), %eax
	orl	%eax, %edx
	movq	-168(%rbp), %rax
	movzbl	(%rax), %eax
	orl	%edx, %eax
	testb	%al, %al
	je	.L214
	movb	$1, -245(%rbp)
.L214:
	movq	-192(%rbp), %rax
	movzbl	(%rax), %eax
	movb	%al, -244(%rbp)
	movq	-184(%rbp), %rax
	movzbl	(%rax), %eax
	movb	%al, -243(%rbp)
	movq	-176(%rbp), %rax
	movzbl	(%rax), %eax
	movb	%al, -242(%rbp)
	movq	-168(%rbp), %rax
	movzbl	(%rax), %eax
	movb	%al, -241(%rbp)
	movq	-168(%rbp), %rcx
	movq	-176(%rbp), %rdx
	movq	-184(%rbp), %rsi
	movq	-192(%rbp), %rax
	movq	%rax, %rdi
	call	_ZN12_GLOBAL__N_111shrinkBlockEPhS0_S0_S0_
	movq	-192(%rbp), %rax
	movzbl	(%rax), %eax
	testb	%al, %al
	jne	.L215
	cmpb	$0, -244(%rbp)
	je	.L215
	movss	-240(%rbp), %xmm0
	cvttss2si	%xmm0, %ebx
	movl	-232(%rbp), %eax
	cltd
	idivl	-204(%rbp)
	movl	%edx, %esi
	movl	-228(%rbp), %eax
	cltd
	idivl	-208(%rbp)
	movl	%edx, %ecx
	movq	-200(%rbp), %rax
	movl	%esi, %edx
	movl	%ecx, %esi
	movq	%rax, %rdi
	call	_ZN3Map8getpixelEii
	movl	%ebx, %esi
	movl	%eax, %edi
	call	_Z8scaleValii
	movl	%eax, %edi
	movl	_ZN12_GLOBAL__N_15colorE(%rip), %ecx
	movq	_ZN12_GLOBAL__N_13bmpE(%rip), %rax
	movl	-232(%rbp), %edx
	movl	-228(%rbp), %esi
	movl	%edi, %r8d
	movq	%rax, %rdi
	call	_ZN6Bitmap8setpixelEiiii
.L215:
	movq	-184(%rbp), %rax
	movzbl	(%rax), %eax
	testb	%al, %al
	jne	.L216
	cmpb	$0, -243(%rbp)
	je	.L216
	movss	-240(%rbp), %xmm0
	cvttss2si	%xmm0, %ebx
	movl	-232(%rbp), %eax
	cltd
	idivl	-204(%rbp)
	movl	%edx, %esi
	movl	-228(%rbp), %eax
	addl	$1, %eax
	cltd
	idivl	-208(%rbp)
	movl	%edx, %ecx
	movq	-200(%rbp), %rax
	movl	%esi, %edx
	movl	%ecx, %esi
	movq	%rax, %rdi
	call	_ZN3Map8getpixelEii
	movl	%ebx, %esi
	movl	%eax, %edi
	call	_Z8scaleValii
	movl	%eax, %edi
	movl	_ZN12_GLOBAL__N_15colorE(%rip), %ecx
	movl	-228(%rbp), %eax
	leal	1(%rax), %esi
	movq	_ZN12_GLOBAL__N_13bmpE(%rip), %rax
	movl	-232(%rbp), %edx
	movl	%edi, %r8d
	movq	%rax, %rdi
	call	_ZN6Bitmap8setpixelEiiii
.L216:
	movq	-176(%rbp), %rax
	movzbl	(%rax), %eax
	testb	%al, %al
	jne	.L217
	cmpb	$0, -242(%rbp)
	je	.L217
	movss	-240(%rbp), %xmm0
	cvttss2si	%xmm0, %ebx
	movl	-232(%rbp), %eax
	addl	$1, %eax
	cltd
	idivl	-204(%rbp)
	movl	%edx, %esi
	movl	-228(%rbp), %eax
	cltd
	idivl	-208(%rbp)
	movl	%edx, %ecx
	movq	-200(%rbp), %rax
	movl	%esi, %edx
	movl	%ecx, %esi
	movq	%rax, %rdi
	call	_ZN3Map8getpixelEii
	movl	%ebx, %esi
	movl	%eax, %edi
	call	_Z8scaleValii
	movl	%eax, %ecx
	movl	_ZN12_GLOBAL__N_15colorE(%rip), %edx
	movl	-232(%rbp), %eax
	leal	1(%rax), %edi
	movq	_ZN12_GLOBAL__N_13bmpE(%rip), %rax
	movl	-228(%rbp), %esi
	movl	%ecx, %r8d
	movl	%edx, %ecx
	movl	%edi, %edx
	movq	%rax, %rdi
	call	_ZN6Bitmap8setpixelEiiii
.L217:
	movq	-168(%rbp), %rax
	movzbl	(%rax), %eax
	testb	%al, %al
	jne	.L218
	cmpb	$0, -241(%rbp)
	je	.L218
	movss	-240(%rbp), %xmm0
	cvttss2si	%xmm0, %ebx
	movl	-232(%rbp), %eax
	addl	$1, %eax
	cltd
	idivl	-204(%rbp)
	movl	%edx, %esi
	movl	-228(%rbp), %eax
	addl	$1, %eax
	cltd
	idivl	-208(%rbp)
	movl	%edx, %ecx
	movq	-200(%rbp), %rax
	movl	%esi, %edx
	movl	%ecx, %esi
	movq	%rax, %rdi
	call	_ZN3Map8getpixelEii
	movl	%ebx, %esi
	movl	%eax, %edi
	call	_Z8scaleValii
	movl	%eax, %ecx
	movl	_ZN12_GLOBAL__N_15colorE(%rip), %edx
	movl	-232(%rbp), %eax
	leal	1(%rax), %edi
	movl	-228(%rbp), %eax
	leal	1(%rax), %esi
	movq	_ZN12_GLOBAL__N_13bmpE(%rip), %rax
	movl	%ecx, %r8d
	movl	%edx, %ecx
	movl	%edi, %edx
	movq	%rax, %rdi
	call	_ZN6Bitmap8setpixelEiiii
.L218:
	addl	$2, -228(%rbp)
	jmp	.L219
.L213:
	addl	$2, -232(%rbp)
	jmp	.L220
.L212:
	movzbl	-245(%rbp), %eax
	xorl	$1, %eax
	testb	%al, %al
	je	.L221
	movl	$0, %ebx
	jmp	.L222
.L221:
	movl	-236(%rbp), %eax
	movl	%eax, %edi
	call	_ZN12_GLOBAL__N_16updateEi
	shrl	$31, %eax
	testb	%al, %al
	jne	.L257
	addl	$1, -236(%rbp)
	jmp	.L224
.L257:
	nop
.L209:
	movq	_ZN12_GLOBAL__N_16strokeE(%rip), %rax
	movl	4(%rax), %eax
	movl	%eax, -224(%rbp)
.L229:
	movq	_ZN12_GLOBAL__N_16strokeE(%rip), %rax
	movl	12(%rax), %eax
	cmpl	-224(%rbp), %eax
	jl	.L225
	movq	_ZN12_GLOBAL__N_16strokeE(%rip), %rax
	movl	(%rax), %eax
	movl	%eax, -220(%rbp)
.L228:
	movq	_ZN12_GLOBAL__N_16strokeE(%rip), %rax
	movl	8(%rax), %eax
	cmpl	-220(%rbp), %eax
	jl	.L226
	movq	_ZN12_GLOBAL__N_13mapE(%rip), %rax
	movl	-224(%rbp), %edx
	movl	-220(%rbp), %ecx
	movl	%ecx, %esi
	movq	%rax, %rdi
	call	_ZN3Map8getpixelEii
	testl	%eax, %eax
	setne	%al
	testb	%al, %al
	je	.L227
	movl	_ZN12_GLOBAL__N_15transE(%rip), %ebx
	movl	-224(%rbp), %eax
	cltd
	idivl	-204(%rbp)
	movl	%edx, %esi
	movl	-220(%rbp), %eax
	cltd
	idivl	-208(%rbp)
	movl	%edx, %ecx
	movq	-200(%rbp), %rax
	movl	%esi, %edx
	movl	%ecx, %esi
	movq	%rax, %rdi
	call	_ZN3Map8getpixelEii
	movl	%ebx, %esi
	movl	%eax, %edi
	call	_Z8scaleValii
	movl	%eax, %edi
	movl	_ZN12_GLOBAL__N_15colorE(%rip), %ecx
	movq	_ZN12_GLOBAL__N_13bmpE(%rip), %rax
	movl	-224(%rbp), %edx
	movl	-220(%rbp), %esi
	movl	%edi, %r8d
	movq	%rax, %rdi
	call	_ZN6Bitmap8setpixelEiiii
.LEHE11:
.L227:
	addl	$1, -220(%rbp)
	jmp	.L228
.L226:
	addl	$1, -224(%rbp)
	jmp	.L229
.L225:
	movl	$1, %ebx
.L222:
	leaq	-64(%rbp), %rax
	movq	%rax, %rdi
.LEHB12:
	call	_ZN3MapD1Ev
.LEHE12:
	cmpl	$1, %ebx
	je	.L258
	movl	$0, %ebx
	jmp	.L233
.L258:
	nop
	movl	$1, %ebx
.L233:
	leaq	-96(%rbp), %rax
	movq	%rax, %rdi
.LEHB13:
	call	_ZN3MapD1Ev
.LEHE13:
	cmpl	$1, %ebx
	je	.L259
	movl	$0, %ebx
	jmp	.L237
.L259:
	nop
	movl	$1, %ebx
.L237:
	leaq	-128(%rbp), %rax
	movq	%rax, %rdi
.LEHB14:
	call	_ZN3MapD1Ev
.LEHE14:
	cmpl	$1, %ebx
	je	.L260
	movl	$0, %ebx
	jmp	.L241
.L260:
	nop
	movl	$1, %ebx
.L241:
	leaq	-160(%rbp), %rax
	movq	%rax, %rdi
.LEHB15:
	call	_ZN3MapD1Ev
.LEHE15:
	cmpl	$1, %ebx
	nop
	movq	-24(%rbp), %rax
	xorq	%fs:40, %rax
	je	.L249
	jmp	.L256
.L253:
	movq	%rax, %rbx
	leaq	-64(%rbp), %rax
	movq	%rax, %rdi
	call	_ZN3MapD1Ev
	jmp	.L246
.L252:
	movq	%rax, %rbx
.L246:
	leaq	-96(%rbp), %rax
	movq	%rax, %rdi
	call	_ZN3MapD1Ev
	jmp	.L247
.L251:
	movq	%rax, %rbx
.L247:
	leaq	-128(%rbp), %rax
	movq	%rax, %rdi
	call	_ZN3MapD1Ev
	jmp	.L248
.L250:
	movq	%rax, %rbx
.L248:
	leaq	-160(%rbp), %rax
	movq	%rax, %rdi
	call	_ZN3MapD1Ev
	movq	%rbx, %rax
	movq	%rax, %rdi
.LEHB16:
	call	_Unwind_Resume
.LEHE16:
.L256:
	call	__stack_chk_fail
.L249:
	addq	$248, %rsp
	popq	%rbx
	popq	%rbp
	.cfi_def_cfa 7, 8
	ret
	.cfi_endproc
.LFE985:
	.section	.gcc_except_table
.LLSDA985:
	.byte	0xff
	.byte	0xff
	.byte	0x1
	.uleb128 .LLSDACSE985-.LLSDACSB985
.LLSDACSB985:
	.uleb128 .LEHB7-.LFB985
	.uleb128 .LEHE7-.LEHB7
	.uleb128 0
	.uleb128 0
	.uleb128 .LEHB8-.LFB985
	.uleb128 .LEHE8-.LEHB8
	.uleb128 .L250-.LFB985
	.uleb128 0
	.uleb128 .LEHB9-.LFB985
	.uleb128 .LEHE9-.LEHB9
	.uleb128 .L251-.LFB985
	.uleb128 0
	.uleb128 .LEHB10-.LFB985
	.uleb128 .LEHE10-.LEHB10
	.uleb128 .L252-.LFB985
	.uleb128 0
	.uleb128 .LEHB11-.LFB985
	.uleb128 .LEHE11-.LEHB11
	.uleb128 .L253-.LFB985
	.uleb128 0
	.uleb128 .LEHB12-.LFB985
	.uleb128 .LEHE12-.LEHB12
	.uleb128 .L252-.LFB985
	.uleb128 0
	.uleb128 .LEHB13-.LFB985
	.uleb128 .LEHE13-.LEHB13
	.uleb128 .L251-.LFB985
	.uleb128 0
	.uleb128 .LEHB14-.LFB985
	.uleb128 .LEHE14-.LEHB14
	.uleb128 .L250-.LFB985
	.uleb128 0
	.uleb128 .LEHB15-.LFB985
	.uleb128 .LEHE15-.LEHB15
	.uleb128 0
	.uleb128 0
	.uleb128 .LEHB16-.LFB985
	.uleb128 .LEHE16-.LEHB16
	.uleb128 0
	.uleb128 0
.LLSDACSE985:
	.text
	.size	_ZN12_GLOBAL__N_113renderTextureEv, .-_ZN12_GLOBAL__N_113renderTextureEv
	.type	_ZN12_GLOBAL__N_113renderAverageEv, @function
_ZN12_GLOBAL__N_113renderAverageEv:
.LFB986:
	.cfi_startproc
	pushq	%rbp
	.cfi_def_cfa_offset 16
	.cfi_offset 6, -16
	movq	%rsp, %rbp
	.cfi_def_cfa_register 6
	addq	$-128, %rsp
	movl	$0, -104(%rbp)
	movl	$0, -100(%rbp)
	movl	$0, -96(%rbp)
	movl	$0, -92(%rbp)
	movq	_ZN12_GLOBAL__N_16strokeE(%rip), %rax
	movl	4(%rax), %eax
	movl	%eax, -88(%rbp)
.L266:
	movq	_ZN12_GLOBAL__N_16strokeE(%rip), %rax
	movl	12(%rax), %eax
	cmpl	-88(%rbp), %eax
	jl	.L262
	movq	_ZN12_GLOBAL__N_13mapE(%rip), %rax
	movq	16(%rax), %rax
	movl	-88(%rbp), %edx
	movslq	%edx, %rdx
	salq	$3, %rdx
	addq	%rdx, %rax
	movq	(%rax), %rdx
	movq	_ZN12_GLOBAL__N_16strokeE(%rip), %rax
	movl	(%rax), %eax
	cltq
	addq	%rdx, %rax
	movq	%rax, -40(%rbp)
	movq	_ZN12_GLOBAL__N_16strokeE(%rip), %rax
	movl	(%rax), %eax
	movl	%eax, -84(%rbp)
.L265:
	movq	_ZN12_GLOBAL__N_16strokeE(%rip), %rax
	movl	8(%rax), %eax
	cmpl	-84(%rbp), %eax
	jl	.L263
	movq	-40(%rbp), %rax
	leaq	1(%rax), %rdx
	movq	%rdx, -40(%rbp)
	movzbl	(%rax), %eax
	testb	%al, %al
	setne	%al
	testb	%al, %al
	je	.L264
	movq	_ZN12_GLOBAL__N_13bmpE(%rip), %rax
	movl	-88(%rbp), %edx
	movl	-84(%rbp), %ecx
	movl	%ecx, %esi
	movq	%rax, %rdi
	call	_ZN6Bitmap8getpixelEii
	movl	%eax, -52(%rbp)
	movl	-52(%rbp), %eax
	movl	%eax, %edi
	call	_Z7getRgbaj
	movl	%eax, -112(%rbp)
	movzbl	-112(%rbp), %eax
	movzbl	%al, %eax
	movl	%eax, %edi
	call	_ZN5Gamma3fixEi
	addl	%eax, -104(%rbp)
	movzbl	-111(%rbp), %eax
	movzbl	%al, %eax
	movl	%eax, %edi
	call	_ZN5Gamma3fixEi
	addl	%eax, -100(%rbp)
	movzbl	-110(%rbp), %eax
	movzbl	%al, %eax
	movl	%eax, %edi
	call	_ZN5Gamma3fixEi
	addl	%eax, -96(%rbp)
	addl	$1, -92(%rbp)
.L264:
	addl	$1, -84(%rbp)
	jmp	.L265
.L263:
	addl	$1, -88(%rbp)
	jmp	.L266
.L262:
	cmpl	$0, -92(%rbp)
	je	.L291
	movl	-104(%rbp), %eax
	cltd
	idivl	-92(%rbp)
	movl	%eax, -104(%rbp)
	movl	-100(%rbp), %eax
	cltd
	idivl	-92(%rbp)
	movl	%eax, -100(%rbp)
	movl	-96(%rbp), %eax
	cltd
	idivl	-92(%rbp)
	movl	%eax, -96(%rbp)
	movl	-104(%rbp), %eax
	movl	%eax, %edi
	call	_ZN5Gamma5unfixEi
	movl	%eax, -104(%rbp)
	movl	-100(%rbp), %eax
	movl	%eax, %edi
	call	_ZN5Gamma5unfixEi
	movl	%eax, -100(%rbp)
	movl	-96(%rbp), %eax
	movl	%eax, %edi
	call	_ZN5Gamma5unfixEi
	movl	%eax, -96(%rbp)
	movl	-96(%rbp), %edx
	movl	-100(%rbp), %ecx
	movl	-104(%rbp), %eax
	movl	%ecx, %esi
	movl	%eax, %edi
	call	_Z7makeRgbiii
	movl	%eax, -48(%rbp)
	movss	.LC4(%rip), %xmm0
	movss	%xmm0, -80(%rbp)
	movq	_ZN12_GLOBAL__N_15brushE(%rip), %rax
	movl	80(%rax), %eax
	movl	$3, %edx
	movl	%eax, %ecx
	sall	%cl, %edx
	movl	%edx, %eax
	movl	%eax, -76(%rbp)
	movl	_ZN12_GLOBAL__N_15transE(%rip), %eax
	movl	$255, %edx
	subl	%eax, %edx
	movl	%edx, %eax
	pxor	%xmm0, %xmm0
	cvtsi2ss	%eax, %xmm0
	movl	-76(%rbp), %eax
	sarl	%eax
	addl	$1, %eax
	pxor	%xmm1, %xmm1
	cvtsi2ss	%eax, %xmm1
	divss	%xmm1, %xmm0
	movss	%xmm0, -44(%rbp)
	movb	$0, -117(%rbp)
	movq	_ZN12_GLOBAL__N_15brushE(%rip), %rax
	movl	80(%rax), %eax
	testl	%eax, %eax
	jne	.L269
	movl	$1, -76(%rbp)
	movl	_ZN12_GLOBAL__N_15transE(%rip), %eax
	pxor	%xmm0, %xmm0
	cvtsi2ss	%eax, %xmm0
	movss	%xmm0, -80(%rbp)
.L269:
	movl	$0, -72(%rbp)
.L288:
	movl	-72(%rbp), %eax
	cmpl	-76(%rbp), %eax
	jge	.L261
	movq	_ZN12_GLOBAL__N_16strokeE(%rip), %rax
	movl	4(%rax), %eax
	movl	-72(%rbp), %edx
	andl	$1, %edx
	addl	%edx, %eax
	movl	%eax, -68(%rbp)
.L278:
	movq	_ZN12_GLOBAL__N_16strokeE(%rip), %rax
	movl	12(%rax), %eax
	cmpl	-68(%rbp), %eax
	jle	.L270
	movq	_ZN12_GLOBAL__N_16strokeE(%rip), %rax
	movl	(%rax), %eax
	movl	-72(%rbp), %edx
	andl	$1, %edx
	addl	%edx, %eax
	movl	%eax, -64(%rbp)
.L277:
	movq	_ZN12_GLOBAL__N_16strokeE(%rip), %rax
	movl	8(%rax), %eax
	cmpl	-64(%rbp), %eax
	jle	.L271
	movq	_ZN12_GLOBAL__N_13mapE(%rip), %rax
	movq	16(%rax), %rax
	movl	-68(%rbp), %edx
	movslq	%edx, %rdx
	salq	$3, %rdx
	addq	%rdx, %rax
	movq	(%rax), %rdx
	movl	-64(%rbp), %eax
	cltq
	addq	%rdx, %rax
	movq	%rax, -32(%rbp)
	movq	_ZN12_GLOBAL__N_13mapE(%rip), %rax
	movq	16(%rax), %rax
	movl	-68(%rbp), %edx
	movslq	%edx, %rdx
	salq	$3, %rdx
	addq	%rdx, %rax
	movq	(%rax), %rax
	movl	-64(%rbp), %edx
	movslq	%edx, %rdx
	addq	$1, %rdx
	addq	%rdx, %rax
	movq	%rax, -24(%rbp)
	movq	_ZN12_GLOBAL__N_13mapE(%rip), %rax
	movq	16(%rax), %rax
	movl	-68(%rbp), %edx
	movslq	%edx, %rdx
	addq	$1, %rdx
	salq	$3, %rdx
	addq	%rdx, %rax
	movq	(%rax), %rdx
	movl	-64(%rbp), %eax
	cltq
	addq	%rdx, %rax
	movq	%rax, -16(%rbp)
	movq	_ZN12_GLOBAL__N_13mapE(%rip), %rax
	movq	16(%rax), %rax
	movl	-68(%rbp), %edx
	movslq	%edx, %rdx
	addq	$1, %rdx
	salq	$3, %rdx
	addq	%rdx, %rax
	movq	(%rax), %rax
	movl	-64(%rbp), %edx
	movslq	%edx, %rdx
	addq	$1, %rdx
	addq	%rdx, %rax
	movq	%rax, -8(%rbp)
	movq	-32(%rbp), %rax
	movzbl	(%rax), %eax
	andl	$1, %eax
	movl	%eax, %edx
	movq	-32(%rbp), %rax
	movb	%dl, (%rax)
	movq	-24(%rbp), %rax
	movzbl	(%rax), %eax
	andl	$1, %eax
	movl	%eax, %edx
	movq	-24(%rbp), %rax
	movb	%dl, (%rax)
	movq	-16(%rbp), %rax
	movzbl	(%rax), %eax
	andl	$1, %eax
	movl	%eax, %edx
	movq	-16(%rbp), %rax
	movb	%dl, (%rax)
	movq	-8(%rbp), %rax
	movzbl	(%rax), %eax
	andl	$1, %eax
	movl	%eax, %edx
	movq	-8(%rbp), %rax
	movb	%dl, (%rax)
	movq	-32(%rbp), %rax
	movzbl	(%rax), %edx
	movq	-24(%rbp), %rax
	movzbl	(%rax), %eax
	orl	%eax, %edx
	movq	-16(%rbp), %rax
	movzbl	(%rax), %eax
	orl	%eax, %edx
	movq	-8(%rbp), %rax
	movzbl	(%rax), %eax
	orl	%edx, %eax
	testb	%al, %al
	je	.L272
	movb	$1, -117(%rbp)
.L272:
	movq	-32(%rbp), %rax
	movzbl	(%rax), %eax
	movb	%al, -116(%rbp)
	movq	-24(%rbp), %rax
	movzbl	(%rax), %eax
	movb	%al, -115(%rbp)
	movq	-16(%rbp), %rax
	movzbl	(%rax), %eax
	movb	%al, -114(%rbp)
	movq	-8(%rbp), %rax
	movzbl	(%rax), %eax
	movb	%al, -113(%rbp)
	movq	-8(%rbp), %rcx
	movq	-16(%rbp), %rdx
	movq	-24(%rbp), %rsi
	movq	-32(%rbp), %rax
	movq	%rax, %rdi
	call	_ZN12_GLOBAL__N_111shrinkBlockEPhS0_S0_S0_
	movq	-32(%rbp), %rax
	movzbl	(%rax), %eax
	testb	%al, %al
	jne	.L273
	cmpb	$0, -116(%rbp)
	je	.L273
	movss	-80(%rbp), %xmm0
	cvttss2si	%xmm0, %edi
	movq	_ZN12_GLOBAL__N_13bmpE(%rip), %rax
	movl	-48(%rbp), %ecx
	movl	-68(%rbp), %edx
	movl	-64(%rbp), %esi
	movl	%edi, %r8d
	movq	%rax, %rdi
	call	_ZN6Bitmap8setpixelEiiii
.L273:
	movq	-24(%rbp), %rax
	movzbl	(%rax), %eax
	testb	%al, %al
	jne	.L274
	cmpb	$0, -115(%rbp)
	je	.L274
	movss	-80(%rbp), %xmm0
	cvttss2si	%xmm0, %edi
	movl	-64(%rbp), %eax
	leal	1(%rax), %esi
	movq	_ZN12_GLOBAL__N_13bmpE(%rip), %rax
	movl	-48(%rbp), %ecx
	movl	-68(%rbp), %edx
	movl	%edi, %r8d
	movq	%rax, %rdi
	call	_ZN6Bitmap8setpixelEiiii
.L274:
	movq	-16(%rbp), %rax
	movzbl	(%rax), %eax
	testb	%al, %al
	jne	.L275
	cmpb	$0, -114(%rbp)
	je	.L275
	movss	-80(%rbp), %xmm0
	cvttss2si	%xmm0, %ecx
	movl	-68(%rbp), %eax
	leal	1(%rax), %edi
	movq	_ZN12_GLOBAL__N_13bmpE(%rip), %rax
	movl	-48(%rbp), %edx
	movl	-64(%rbp), %esi
	movl	%ecx, %r8d
	movl	%edx, %ecx
	movl	%edi, %edx
	movq	%rax, %rdi
	call	_ZN6Bitmap8setpixelEiiii
.L275:
	movq	-8(%rbp), %rax
	movzbl	(%rax), %eax
	testb	%al, %al
	jne	.L276
	cmpb	$0, -113(%rbp)
	je	.L276
	movss	-80(%rbp), %xmm0
	cvttss2si	%xmm0, %ecx
	movl	-68(%rbp), %eax
	leal	1(%rax), %edi
	movl	-64(%rbp), %eax
	leal	1(%rax), %esi
	movq	_ZN12_GLOBAL__N_13bmpE(%rip), %rax
	movl	-48(%rbp), %edx
	movl	%ecx, %r8d
	movl	%edx, %ecx
	movl	%edi, %edx
	movq	%rax, %rdi
	call	_ZN6Bitmap8setpixelEiiii
.L276:
	addl	$2, -64(%rbp)
	jmp	.L277
.L271:
	addl	$2, -68(%rbp)
	jmp	.L278
.L270:
	movzbl	-117(%rbp), %eax
	xorl	$1, %eax
	testb	%al, %al
	jne	.L292
	movss	-80(%rbp), %xmm0
	subss	-44(%rbp), %xmm0
	movss	%xmm0, -80(%rbp)
	movl	_ZN12_GLOBAL__N_15transE(%rip), %eax
	pxor	%xmm0, %xmm0
	cvtsi2ss	%eax, %xmm0
	ucomiss	-80(%rbp), %xmm0
	jbe	.L290
	movl	_ZN12_GLOBAL__N_15transE(%rip), %eax
	pxor	%xmm0, %xmm0
	cvtsi2ss	%eax, %xmm0
	movss	%xmm0, -80(%rbp)
	movq	_ZN12_GLOBAL__N_16strokeE(%rip), %rax
	movl	4(%rax), %eax
	movl	%eax, -60(%rbp)
.L286:
	movq	_ZN12_GLOBAL__N_16strokeE(%rip), %rax
	movl	12(%rax), %eax
	cmpl	-60(%rbp), %eax
	jl	.L293
	movq	_ZN12_GLOBAL__N_16strokeE(%rip), %rax
	movl	(%rax), %eax
	movl	%eax, -56(%rbp)
.L285:
	movq	_ZN12_GLOBAL__N_16strokeE(%rip), %rax
	movl	8(%rax), %eax
	cmpl	-56(%rbp), %eax
	jl	.L283
	movq	_ZN12_GLOBAL__N_13mapE(%rip), %rax
	movl	-60(%rbp), %edx
	movl	-56(%rbp), %ecx
	movl	%ecx, %esi
	movq	%rax, %rdi
	call	_ZN3Map8getpixelEii
	testl	%eax, %eax
	setne	%al
	testb	%al, %al
	je	.L284
	movss	-80(%rbp), %xmm0
	cvttss2si	%xmm0, %edi
	movq	_ZN12_GLOBAL__N_13bmpE(%rip), %rax
	movl	-48(%rbp), %ecx
	movl	-60(%rbp), %edx
	movl	-56(%rbp), %esi
	movl	%edi, %r8d
	movq	%rax, %rdi
	call	_ZN6Bitmap8setpixelEiiii
.L284:
	addl	$1, -56(%rbp)
	jmp	.L285
.L283:
	addl	$1, -60(%rbp)
	jmp	.L286
.L290:
	movl	-72(%rbp), %eax
	movl	%eax, %edi
	call	_ZN12_GLOBAL__N_16updateEi
	shrl	$31, %eax
	testb	%al, %al
	jne	.L294
	addl	$1, -72(%rbp)
	jmp	.L288
.L291:
	nop
	jmp	.L261
.L292:
	nop
	jmp	.L261
.L293:
	nop
	jmp	.L261
.L294:
	nop
.L261:
	leave
	.cfi_def_cfa 7, 8
	ret
	.cfi_endproc
.LFE986:
	.size	_ZN12_GLOBAL__N_113renderAverageEv, .-_ZN12_GLOBAL__N_113renderAverageEv
	.globl	_ZN6Render5beginEv
	.type	_ZN6Render5beginEv, @function
_ZN6Render5beginEv:
.LFB987:
	.cfi_startproc
	pushq	%rbp
	.cfi_def_cfa_offset 16
	.cfi_offset 6, -16
	movq	%rsp, %rbp
	.cfi_def_cfa_register 6
	subq	$32, %rsp
	call	_ZN3Gui7getViewEv
	movq	%rax, _ZN12_GLOBAL__N_14viewE(%rip)
	movq	_ZN7Project3bmpE(%rip), %rax
	movq	%rax, _ZN12_GLOBAL__N_13bmpE(%rip)
	movq	_ZN7Project3mapE(%rip), %rax
	movq	%rax, _ZN12_GLOBAL__N_13mapE(%rip)
	movl	$_ZN7Project5brushE, %edi
	call	_ZN2SPI5BrushE3getEv
	movq	%rax, _ZN12_GLOBAL__N_15brushE(%rip)
	movl	$_ZN7Project6strokeE, %edi
	call	_ZN2SPI6StrokeE3getEv
	movq	%rax, _ZN12_GLOBAL__N_16strokeE(%rip)
	movq	_ZN12_GLOBAL__N_15brushE(%rip), %rax
	movl	84(%rax), %eax
	movl	%eax, _ZN12_GLOBAL__N_15colorE(%rip)
	movq	_ZN12_GLOBAL__N_15brushE(%rip), %rax
	movl	88(%rax), %eax
	movl	%eax, _ZN12_GLOBAL__N_15transE(%rip)
	movl	$1, -4(%rbp)
	call	_ZN3Gui12getPaintModeEv
	cmpl	$4, %eax
	je	.L297
	cmpl	$5, %eax
	je	.L298
	jmp	.L296
.L297:
	movq	_ZN12_GLOBAL__N_15brushE(%rip), %rax
	movl	56(%rax), %eax
	movl	$3, %edx
	movl	%eax, %ecx
	sall	%cl, %edx
	movl	%edx, %eax
	movl	%eax, -4(%rbp)
	jmp	.L296
.L298:
	movq	_ZN12_GLOBAL__N_15brushE(%rip), %rax
	movl	60(%rax), %eax
	movl	$3, %edx
	movl	%eax, %ecx
	sall	%cl, %edx
	movl	%edx, %eax
	movl	%eax, -4(%rbp)
	nop
.L296:
	movq	_ZN12_GLOBAL__N_16strokeE(%rip), %rax
	movq	_ZN12_GLOBAL__N_16strokeE(%rip), %rdx
	movl	(%rdx), %edx
	subl	-4(%rbp), %edx
	movl	%edx, (%rax)
	movq	_ZN12_GLOBAL__N_16strokeE(%rip), %rax
	movq	_ZN12_GLOBAL__N_16strokeE(%rip), %rdx
	movl	4(%rdx), %edx
	subl	-4(%rbp), %edx
	movl	%edx, 4(%rax)
	movq	_ZN12_GLOBAL__N_16strokeE(%rip), %rax
	movq	_ZN12_GLOBAL__N_16strokeE(%rip), %rdx
	movl	8(%rdx), %ecx
	movl	-4(%rbp), %edx
	addl	%ecx, %edx
	movl	%edx, 8(%rax)
	movq	_ZN12_GLOBAL__N_16strokeE(%rip), %rax
	movq	_ZN12_GLOBAL__N_16strokeE(%rip), %rdx
	movl	12(%rdx), %ecx
	movl	-4(%rbp), %edx
	addl	%ecx, %edx
	movl	%edx, 12(%rax)
	movq	_ZN12_GLOBAL__N_16strokeE(%rip), %rax
	movq	%rax, %rdi
	call	_ZN6Stroke4clipEv
	movq	_ZN12_GLOBAL__N_14viewE(%rip), %rax
	movl	180(%rax), %edi
	movq	_ZN12_GLOBAL__N_14viewE(%rip), %rax
	movl	176(%rax), %r8d
	movq	_ZN12_GLOBAL__N_14viewE(%rip), %rax
	movl	172(%rax), %r9d
	movq	_ZN12_GLOBAL__N_16strokeE(%rip), %rax
	movl	12(%rax), %r10d
	movq	_ZN12_GLOBAL__N_16strokeE(%rip), %rax
	movl	8(%rax), %ecx
	movq	_ZN12_GLOBAL__N_16strokeE(%rip), %rax
	movl	4(%rax), %edx
	movq	_ZN12_GLOBAL__N_16strokeE(%rip), %rax
	movl	(%rax), %esi
	movq	_ZN12_GLOBAL__N_16strokeE(%rip), %rax
	pushq	$1
	pushq	%r8
	movl	%edi, -20(%rbp)
	movss	-20(%rbp), %xmm0
	movl	%r10d, %r8d
	movq	%rax, %rdi
	call	_ZN6Stroke12makeBlitRectEiiiiiiif
	addq	$16, %rsp
	call	_ZN4Undo4pushEv
	movq	_ZN12_GLOBAL__N_14viewE(%rip), %rax
	movb	$1, 256(%rax)
	call	_ZN3Gui12getPaintModeEv
	cmpl	$8, %eax
	ja	.L311
	movl	%eax, %eax
	movq	.L301(,%rax,8), %rax
	jmp	*%rax
	.section	.rodata
	.align 8
	.align 4
.L301:
	.quad	.L300
	.quad	.L302
	.quad	.L303
	.quad	.L304
	.quad	.L305
	.quad	.L306
	.quad	.L307
	.quad	.L308
	.quad	.L309
	.text
.L300:
	call	_ZN12_GLOBAL__N_111renderSolidEv
	jmp	.L310
.L302:
	call	_ZN12_GLOBAL__N_117renderAntialiasedEv
	jmp	.L310
.L303:
	call	_ZN12_GLOBAL__N_112renderCoarseEv
	jmp	.L310
.L304:
	call	_ZN12_GLOBAL__N_110renderFineEv
	jmp	.L310
.L305:
	call	_ZN12_GLOBAL__N_110renderBlurEv
	jmp	.L310
.L306:
	call	_ZN12_GLOBAL__N_116renderWatercolorEv
	jmp	.L310
.L307:
	call	_ZN12_GLOBAL__N_111renderChalkEv
	jmp	.L310
.L308:
	call	_ZN12_GLOBAL__N_113renderTextureEv
	jmp	.L310
.L309:
	call	_ZN12_GLOBAL__N_113renderAverageEv
	jmp	.L310
.L311:
	nop
.L310:
	movq	_ZN12_GLOBAL__N_14viewE(%rip), %rax
	movl	$1, %esi
	movq	%rax, %rdi
	call	_ZN4View8drawMainEb
	movq	_ZN12_GLOBAL__N_14viewE(%rip), %rax
	movb	$0, 256(%rax)
	nop
	leave
	.cfi_def_cfa 7, 8
	ret
	.cfi_endproc
.LFE987:
	.size	_ZN6Render5beginEv, .-_ZN6Render5beginEv
	.section	.text._ZNSaIiEC2Ev,"axG",@progbits,_ZNSaIiEC5Ev,comdat
	.align 2
	.weak	_ZNSaIiEC2Ev
	.type	_ZNSaIiEC2Ev, @function
_ZNSaIiEC2Ev:
.LFB990:
	.cfi_startproc
	pushq	%rbp
	.cfi_def_cfa_offset 16
	.cfi_offset 6, -16
	movq	%rsp, %rbp
	.cfi_def_cfa_register 6
	subq	$16, %rsp
	movq	%rdi, -8(%rbp)
	movq	-8(%rbp), %rax
	movq	%rax, %rdi
	call	_ZN9__gnu_cxx13new_allocatorIiEC2Ev
	nop
	leave
	.cfi_def_cfa 7, 8
	ret
	.cfi_endproc
.LFE990:
	.size	_ZNSaIiEC2Ev, .-_ZNSaIiEC2Ev
	.weak	_ZNSaIiEC1Ev
	.set	_ZNSaIiEC1Ev,_ZNSaIiEC2Ev
	.section	.text._ZNSaIiED2Ev,"axG",@progbits,_ZNSaIiED5Ev,comdat
	.align 2
	.weak	_ZNSaIiED2Ev
	.type	_ZNSaIiED2Ev, @function
_ZNSaIiED2Ev:
.LFB993:
	.cfi_startproc
	pushq	%rbp
	.cfi_def_cfa_offset 16
	.cfi_offset 6, -16
	movq	%rsp, %rbp
	.cfi_def_cfa_register 6
	subq	$16, %rsp
	movq	%rdi, -8(%rbp)
	movq	-8(%rbp), %rax
	movq	%rax, %rdi
	call	_ZN9__gnu_cxx13new_allocatorIiED2Ev
	nop
	leave
	.cfi_def_cfa 7, 8
	ret
	.cfi_endproc
.LFE993:
	.size	_ZNSaIiED2Ev, .-_ZNSaIiED2Ev
	.weak	_ZNSaIiED1Ev
	.set	_ZNSaIiED1Ev,_ZNSaIiED2Ev
	.section	.text._ZNSt6vectorIiSaIiEEC2EmRKiRKS0_,"axG",@progbits,_ZNSt6vectorIiSaIiEEC5EmRKiRKS0_,comdat
	.align 2
	.weak	_ZNSt6vectorIiSaIiEEC2EmRKiRKS0_
	.type	_ZNSt6vectorIiSaIiEEC2EmRKiRKS0_, @function
_ZNSt6vectorIiSaIiEEC2EmRKiRKS0_:
.LFB996:
	.cfi_startproc
	.cfi_personality 0x3,__gxx_personality_v0
	.cfi_lsda 0x3,.LLSDA996
	pushq	%rbp
	.cfi_def_cfa_offset 16
	.cfi_offset 6, -16
	movq	%rsp, %rbp
	.cfi_def_cfa_register 6
	pushq	%rbx
	subq	$40, %rsp
	.cfi_offset 3, -24
	movq	%rdi, -24(%rbp)
	movq	%rsi, -32(%rbp)
	movq	%rdx, -40(%rbp)
	movq	%rcx, -48(%rbp)
	movq	-24(%rbp), %rax
	movq	-48(%rbp), %rdx
	movq	-32(%rbp), %rcx
	movq	%rcx, %rsi
	movq	%rax, %rdi
.LEHB17:
	call	_ZNSt12_Vector_baseIiSaIiEEC2EmRKS0_
.LEHE17:
	movq	-40(%rbp), %rdx
	movq	-32(%rbp), %rcx
	movq	-24(%rbp), %rax
	movq	%rcx, %rsi
	movq	%rax, %rdi
.LEHB18:
	call	_ZNSt6vectorIiSaIiEE18_M_fill_initializeEmRKi
.LEHE18:
	jmp	.L317
.L316:
	movq	%rax, %rbx
	movq	-24(%rbp), %rax
	movq	%rax, %rdi
	call	_ZNSt12_Vector_baseIiSaIiEED2Ev
	movq	%rbx, %rax
	movq	%rax, %rdi
.LEHB19:
	call	_Unwind_Resume
.LEHE19:
.L317:
	addq	$40, %rsp
	popq	%rbx
	popq	%rbp
	.cfi_def_cfa 7, 8
	ret
	.cfi_endproc
.LFE996:
	.section	.gcc_except_table
.LLSDA996:
	.byte	0xff
	.byte	0xff
	.byte	0x1
	.uleb128 .LLSDACSE996-.LLSDACSB996
.LLSDACSB996:
	.uleb128 .LEHB17-.LFB996
	.uleb128 .LEHE17-.LEHB17
	.uleb128 0
	.uleb128 0
	.uleb128 .LEHB18-.LFB996
	.uleb128 .LEHE18-.LEHB18
	.uleb128 .L316-.LFB996
	.uleb128 0
	.uleb128 .LEHB19-.LFB996
	.uleb128 .LEHE19-.LEHB19
	.uleb128 0
	.uleb128 0
.LLSDACSE996:
	.section	.text._ZNSt6vectorIiSaIiEEC2EmRKiRKS0_,"axG",@progbits,_ZNSt6vectorIiSaIiEEC5EmRKiRKS0_,comdat
	.size	_ZNSt6vectorIiSaIiEEC2EmRKiRKS0_, .-_ZNSt6vectorIiSaIiEEC2EmRKiRKS0_
	.weak	_ZNSt6vectorIiSaIiEEC1EmRKiRKS0_
	.set	_ZNSt6vectorIiSaIiEEC1EmRKiRKS0_,_ZNSt6vectorIiSaIiEEC2EmRKiRKS0_
	.section	.text._ZNSt6vectorIiSaIiEED2Ev,"axG",@progbits,_ZNSt6vectorIiSaIiEED5Ev,comdat
	.align 2
	.weak	_ZNSt6vectorIiSaIiEED2Ev
	.type	_ZNSt6vectorIiSaIiEED2Ev, @function
_ZNSt6vectorIiSaIiEED2Ev:
.LFB999:
	.cfi_startproc
	.cfi_personality 0x3,__gxx_personality_v0
	.cfi_lsda 0x3,.LLSDA999
	pushq	%rbp
	.cfi_def_cfa_offset 16
	.cfi_offset 6, -16
	movq	%rsp, %rbp
	.cfi_def_cfa_register 6
	pushq	%rbx
	subq	$24, %rsp
	.cfi_offset 3, -24
	movq	%rdi, -24(%rbp)
	movq	-24(%rbp), %rax
	movq	%rax, %rdi
	call	_ZNSt12_Vector_baseIiSaIiEE19_M_get_Tp_allocatorEv
	movq	%rax, %rdx
	movq	-24(%rbp), %rax
	movq	8(%rax), %rcx
	movq	-24(%rbp), %rax
	movq	(%rax), %rax
	movq	%rcx, %rsi
	movq	%rax, %rdi
.LEHB20:
	call	_ZSt8_DestroyIPiiEvT_S1_RSaIT0_E
.LEHE20:
	movq	-24(%rbp), %rax
	movq	%rax, %rdi
.LEHB21:
	call	_ZNSt12_Vector_baseIiSaIiEED2Ev
.LEHE21:
	jmp	.L321
.L320:
	movq	%rax, %rbx
	movq	-24(%rbp), %rax
	movq	%rax, %rdi
	call	_ZNSt12_Vector_baseIiSaIiEED2Ev
	movq	%rbx, %rax
	movq	%rax, %rdi
.LEHB22:
	call	_Unwind_Resume
.LEHE22:
.L321:
	addq	$24, %rsp
	popq	%rbx
	popq	%rbp
	.cfi_def_cfa 7, 8
	ret
	.cfi_endproc
.LFE999:
	.section	.gcc_except_table
.LLSDA999:
	.byte	0xff
	.byte	0xff
	.byte	0x1
	.uleb128 .LLSDACSE999-.LLSDACSB999
.LLSDACSB999:
	.uleb128 .LEHB20-.LFB999
	.uleb128 .LEHE20-.LEHB20
	.uleb128 .L320-.LFB999
	.uleb128 0
	.uleb128 .LEHB21-.LFB999
	.uleb128 .LEHE21-.LEHB21
	.uleb128 0
	.uleb128 0
	.uleb128 .LEHB22-.LFB999
	.uleb128 .LEHE22-.LEHB22
	.uleb128 0
	.uleb128 0
.LLSDACSE999:
	.section	.text._ZNSt6vectorIiSaIiEED2Ev,"axG",@progbits,_ZNSt6vectorIiSaIiEED5Ev,comdat
	.size	_ZNSt6vectorIiSaIiEED2Ev, .-_ZNSt6vectorIiSaIiEED2Ev
	.weak	_ZNSt6vectorIiSaIiEED1Ev
	.set	_ZNSt6vectorIiSaIiEED1Ev,_ZNSt6vectorIiSaIiEED2Ev
	.section	.text._ZNSt6vectorIiSaIiEEixEm,"axG",@progbits,_ZNSt6vectorIiSaIiEEixEm,comdat
	.align 2
	.weak	_ZNSt6vectorIiSaIiEEixEm
	.type	_ZNSt6vectorIiSaIiEEixEm, @function
_ZNSt6vectorIiSaIiEEixEm:
.LFB1001:
	.cfi_startproc
	pushq	%rbp
	.cfi_def_cfa_offset 16
	.cfi_offset 6, -16
	movq	%rsp, %rbp
	.cfi_def_cfa_register 6
	movq	%rdi, -8(%rbp)
	movq	%rsi, -16(%rbp)
	movq	-8(%rbp), %rax
	movq	(%rax), %rax
	movq	-16(%rbp), %rdx
	salq	$2, %rdx
	addq	%rdx, %rax
	popq	%rbp
	.cfi_def_cfa 7, 8
	ret
	.cfi_endproc
.LFE1001:
	.size	_ZNSt6vectorIiSaIiEEixEm, .-_ZNSt6vectorIiSaIiEEixEm
	.section	.text._ZN2SPI5BrushE3getEv,"axG",@progbits,_ZN2SPI5BrushE3getEv,comdat
	.align 2
	.weak	_ZN2SPI5BrushE3getEv
	.type	_ZN2SPI5BrushE3getEv, @function
_ZN2SPI5BrushE3getEv:
.LFB1002:
	.cfi_startproc
	pushq	%rbp
	.cfi_def_cfa_offset 16
	.cfi_offset 6, -16
	movq	%rsp, %rbp
	.cfi_def_cfa_register 6
	movq	%rdi, -8(%rbp)
	movq	-8(%rbp), %rax
	movq	(%rax), %rax
	popq	%rbp
	.cfi_def_cfa 7, 8
	ret
	.cfi_endproc
.LFE1002:
	.size	_ZN2SPI5BrushE3getEv, .-_ZN2SPI5BrushE3getEv
	.section	.text._ZN2SPI6StrokeE3getEv,"axG",@progbits,_ZN2SPI6StrokeE3getEv,comdat
	.align 2
	.weak	_ZN2SPI6StrokeE3getEv
	.type	_ZN2SPI6StrokeE3getEv, @function
_ZN2SPI6StrokeE3getEv:
.LFB1003:
	.cfi_startproc
	pushq	%rbp
	.cfi_def_cfa_offset 16
	.cfi_offset 6, -16
	movq	%rsp, %rbp
	.cfi_def_cfa_register 6
	movq	%rdi, -8(%rbp)
	movq	-8(%rbp), %rax
	movq	(%rax), %rax
	popq	%rbp
	.cfi_def_cfa 7, 8
	ret
	.cfi_endproc
.LFE1003:
	.size	_ZN2SPI6StrokeE3getEv, .-_ZN2SPI6StrokeE3getEv
	.section	.text._ZN9__gnu_cxx13new_allocatorIiEC2Ev,"axG",@progbits,_ZN9__gnu_cxx13new_allocatorIiEC5Ev,comdat
	.align 2
	.weak	_ZN9__gnu_cxx13new_allocatorIiEC2Ev
	.type	_ZN9__gnu_cxx13new_allocatorIiEC2Ev, @function
_ZN9__gnu_cxx13new_allocatorIiEC2Ev:
.LFB1007:
	.cfi_startproc
	pushq	%rbp
	.cfi_def_cfa_offset 16
	.cfi_offset 6, -16
	movq	%rsp, %rbp
	.cfi_def_cfa_register 6
	movq	%rdi, -8(%rbp)
	nop
	popq	%rbp
	.cfi_def_cfa 7, 8
	ret
	.cfi_endproc
.LFE1007:
	.size	_ZN9__gnu_cxx13new_allocatorIiEC2Ev, .-_ZN9__gnu_cxx13new_allocatorIiEC2Ev
	.weak	_ZN9__gnu_cxx13new_allocatorIiEC1Ev
	.set	_ZN9__gnu_cxx13new_allocatorIiEC1Ev,_ZN9__gnu_cxx13new_allocatorIiEC2Ev
	.section	.text._ZN9__gnu_cxx13new_allocatorIiED2Ev,"axG",@progbits,_ZN9__gnu_cxx13new_allocatorIiED5Ev,comdat
	.align 2
	.weak	_ZN9__gnu_cxx13new_allocatorIiED2Ev
	.type	_ZN9__gnu_cxx13new_allocatorIiED2Ev, @function
_ZN9__gnu_cxx13new_allocatorIiED2Ev:
.LFB1010:
	.cfi_startproc
	pushq	%rbp
	.cfi_def_cfa_offset 16
	.cfi_offset 6, -16
	movq	%rsp, %rbp
	.cfi_def_cfa_register 6
	movq	%rdi, -8(%rbp)
	nop
	popq	%rbp
	.cfi_def_cfa 7, 8
	ret
	.cfi_endproc
.LFE1010:
	.size	_ZN9__gnu_cxx13new_allocatorIiED2Ev, .-_ZN9__gnu_cxx13new_allocatorIiED2Ev
	.weak	_ZN9__gnu_cxx13new_allocatorIiED1Ev
	.set	_ZN9__gnu_cxx13new_allocatorIiED1Ev,_ZN9__gnu_cxx13new_allocatorIiED2Ev
	.section	.text._ZNSt12_Vector_baseIiSaIiEE12_Vector_implD2Ev,"axG",@progbits,_ZNSt12_Vector_baseIiSaIiEE12_Vector_implD5Ev,comdat
	.align 2
	.weak	_ZNSt12_Vector_baseIiSaIiEE12_Vector_implD2Ev
	.type	_ZNSt12_Vector_baseIiSaIiEE12_Vector_implD2Ev, @function
_ZNSt12_Vector_baseIiSaIiEE12_Vector_implD2Ev:
.LFB1014:
	.cfi_startproc
	pushq	%rbp
	.cfi_def_cfa_offset 16
	.cfi_offset 6, -16
	movq	%rsp, %rbp
	.cfi_def_cfa_register 6
	subq	$16, %rsp
	movq	%rdi, -8(%rbp)
	movq	-8(%rbp), %rax
	movq	%rax, %rdi
	call	_ZNSaIiED2Ev
	nop
	leave
	.cfi_def_cfa 7, 8
	ret
	.cfi_endproc
.LFE1014:
	.size	_ZNSt12_Vector_baseIiSaIiEE12_Vector_implD2Ev, .-_ZNSt12_Vector_baseIiSaIiEE12_Vector_implD2Ev
	.weak	_ZNSt12_Vector_baseIiSaIiEE12_Vector_implD1Ev
	.set	_ZNSt12_Vector_baseIiSaIiEE12_Vector_implD1Ev,_ZNSt12_Vector_baseIiSaIiEE12_Vector_implD2Ev
	.section	.text._ZNSt12_Vector_baseIiSaIiEEC2EmRKS0_,"axG",@progbits,_ZNSt12_Vector_baseIiSaIiEEC5EmRKS0_,comdat
	.align 2
	.weak	_ZNSt12_Vector_baseIiSaIiEEC2EmRKS0_
	.type	_ZNSt12_Vector_baseIiSaIiEEC2EmRKS0_, @function
_ZNSt12_Vector_baseIiSaIiEEC2EmRKS0_:
.LFB1016:
	.cfi_startproc
	.cfi_personality 0x3,__gxx_personality_v0
	.cfi_lsda 0x3,.LLSDA1016
	pushq	%rbp
	.cfi_def_cfa_offset 16
	.cfi_offset 6, -16
	movq	%rsp, %rbp
	.cfi_def_cfa_register 6
	pushq	%rbx
	subq	$40, %rsp
	.cfi_offset 3, -24
	movq	%rdi, -24(%rbp)
	movq	%rsi, -32(%rbp)
	movq	%rdx, -40(%rbp)
	movq	-24(%rbp), %rax
	movq	-40(%rbp), %rdx
	movq	%rdx, %rsi
	movq	%rax, %rdi
	call	_ZNSt12_Vector_baseIiSaIiEE12_Vector_implC1ERKS0_
	movq	-32(%rbp), %rdx
	movq	-24(%rbp), %rax
	movq	%rdx, %rsi
	movq	%rax, %rdi
.LEHB23:
	call	_ZNSt12_Vector_baseIiSaIiEE17_M_create_storageEm
.LEHE23:
	jmp	.L334
.L333:
	movq	%rax, %rbx
	movq	-24(%rbp), %rax
	movq	%rax, %rdi
	call	_ZNSt12_Vector_baseIiSaIiEE12_Vector_implD1Ev
	movq	%rbx, %rax
	movq	%rax, %rdi
.LEHB24:
	call	_Unwind_Resume
.LEHE24:
.L334:
	addq	$40, %rsp
	popq	%rbx
	popq	%rbp
	.cfi_def_cfa 7, 8
	ret
	.cfi_endproc
.LFE1016:
	.section	.gcc_except_table
.LLSDA1016:
	.byte	0xff
	.byte	0xff
	.byte	0x1
	.uleb128 .LLSDACSE1016-.LLSDACSB1016
.LLSDACSB1016:
	.uleb128 .LEHB23-.LFB1016
	.uleb128 .LEHE23-.LEHB23
	.uleb128 .L333-.LFB1016
	.uleb128 0
	.uleb128 .LEHB24-.LFB1016
	.uleb128 .LEHE24-.LEHB24
	.uleb128 0
	.uleb128 0
.LLSDACSE1016:
	.section	.text._ZNSt12_Vector_baseIiSaIiEEC2EmRKS0_,"axG",@progbits,_ZNSt12_Vector_baseIiSaIiEEC5EmRKS0_,comdat
	.size	_ZNSt12_Vector_baseIiSaIiEEC2EmRKS0_, .-_ZNSt12_Vector_baseIiSaIiEEC2EmRKS0_
	.weak	_ZNSt12_Vector_baseIiSaIiEEC1EmRKS0_
	.set	_ZNSt12_Vector_baseIiSaIiEEC1EmRKS0_,_ZNSt12_Vector_baseIiSaIiEEC2EmRKS0_
	.section	.text._ZNSt12_Vector_baseIiSaIiEED2Ev,"axG",@progbits,_ZNSt12_Vector_baseIiSaIiEED5Ev,comdat
	.align 2
	.weak	_ZNSt12_Vector_baseIiSaIiEED2Ev
	.type	_ZNSt12_Vector_baseIiSaIiEED2Ev, @function
_ZNSt12_Vector_baseIiSaIiEED2Ev:
.LFB1019:
	.cfi_startproc
	.cfi_personality 0x3,__gxx_personality_v0
	.cfi_lsda 0x3,.LLSDA1019
	pushq	%rbp
	.cfi_def_cfa_offset 16
	.cfi_offset 6, -16
	movq	%rsp, %rbp
	.cfi_def_cfa_register 6
	pushq	%rbx
	subq	$24, %rsp
	.cfi_offset 3, -24
	movq	%rdi, -24(%rbp)
	movq	-24(%rbp), %rax
	movq	16(%rax), %rax
	movq	%rax, %rdx
	movq	-24(%rbp), %rax
	movq	(%rax), %rax
	subq	%rax, %rdx
	movq	%rdx, %rax
	sarq	$2, %rax
	movq	%rax, %rdx
	movq	-24(%rbp), %rax
	movq	(%rax), %rcx
	movq	-24(%rbp), %rax
	movq	%rcx, %rsi
	movq	%rax, %rdi
.LEHB25:
	call	_ZNSt12_Vector_baseIiSaIiEE13_M_deallocateEPim
.LEHE25:
	movq	-24(%rbp), %rax
	movq	%rax, %rdi
	call	_ZNSt12_Vector_baseIiSaIiEE12_Vector_implD1Ev
	jmp	.L338
.L337:
	movq	%rax, %rbx
	movq	-24(%rbp), %rax
	movq	%rax, %rdi
	call	_ZNSt12_Vector_baseIiSaIiEE12_Vector_implD1Ev
	movq	%rbx, %rax
	movq	%rax, %rdi
.LEHB26:
	call	_Unwind_Resume
.LEHE26:
.L338:
	addq	$24, %rsp
	popq	%rbx
	popq	%rbp
	.cfi_def_cfa 7, 8
	ret
	.cfi_endproc
.LFE1019:
	.section	.gcc_except_table
.LLSDA1019:
	.byte	0xff
	.byte	0xff
	.byte	0x1
	.uleb128 .LLSDACSE1019-.LLSDACSB1019
.LLSDACSB1019:
	.uleb128 .LEHB25-.LFB1019
	.uleb128 .LEHE25-.LEHB25
	.uleb128 .L337-.LFB1019
	.uleb128 0
	.uleb128 .LEHB26-.LFB1019
	.uleb128 .LEHE26-.LEHB26
	.uleb128 0
	.uleb128 0
.LLSDACSE1019:
	.section	.text._ZNSt12_Vector_baseIiSaIiEED2Ev,"axG",@progbits,_ZNSt12_Vector_baseIiSaIiEED5Ev,comdat
	.size	_ZNSt12_Vector_baseIiSaIiEED2Ev, .-_ZNSt12_Vector_baseIiSaIiEED2Ev
	.weak	_ZNSt12_Vector_baseIiSaIiEED1Ev
	.set	_ZNSt12_Vector_baseIiSaIiEED1Ev,_ZNSt12_Vector_baseIiSaIiEED2Ev
	.section	.text._ZNSt6vectorIiSaIiEE18_M_fill_initializeEmRKi,"axG",@progbits,_ZNSt6vectorIiSaIiEE18_M_fill_initializeEmRKi,comdat
	.align 2
	.weak	_ZNSt6vectorIiSaIiEE18_M_fill_initializeEmRKi
	.type	_ZNSt6vectorIiSaIiEE18_M_fill_initializeEmRKi, @function
_ZNSt6vectorIiSaIiEE18_M_fill_initializeEmRKi:
.LFB1021:
	.cfi_startproc
	pushq	%rbp
	.cfi_def_cfa_offset 16
	.cfi_offset 6, -16
	movq	%rsp, %rbp
	.cfi_def_cfa_register 6
	subq	$32, %rsp
	movq	%rdi, -8(%rbp)
	movq	%rsi, -16(%rbp)
	movq	%rdx, -24(%rbp)
	movq	-8(%rbp), %rax
	movq	%rax, %rdi
	call	_ZNSt12_Vector_baseIiSaIiEE19_M_get_Tp_allocatorEv
	movq	%rax, %rcx
	movq	-8(%rbp), %rax
	movq	(%rax), %rax
	movq	-24(%rbp), %rdx
	movq	-16(%rbp), %rsi
	movq	%rax, %rdi
	call	_ZSt24__uninitialized_fill_n_aIPimiiET_S1_T0_RKT1_RSaIT2_E
	movq	%rax, %rdx
	movq	-8(%rbp), %rax
	movq	%rdx, 8(%rax)
	nop
	leave
	.cfi_def_cfa 7, 8
	ret
	.cfi_endproc
.LFE1021:
	.size	_ZNSt6vectorIiSaIiEE18_M_fill_initializeEmRKi, .-_ZNSt6vectorIiSaIiEE18_M_fill_initializeEmRKi
	.section	.text._ZNSt12_Vector_baseIiSaIiEE19_M_get_Tp_allocatorEv,"axG",@progbits,_ZNSt12_Vector_baseIiSaIiEE19_M_get_Tp_allocatorEv,comdat
	.align 2
	.weak	_ZNSt12_Vector_baseIiSaIiEE19_M_get_Tp_allocatorEv
	.type	_ZNSt12_Vector_baseIiSaIiEE19_M_get_Tp_allocatorEv, @function
_ZNSt12_Vector_baseIiSaIiEE19_M_get_Tp_allocatorEv:
.LFB1022:
	.cfi_startproc
	pushq	%rbp
	.cfi_def_cfa_offset 16
	.cfi_offset 6, -16
	movq	%rsp, %rbp
	.cfi_def_cfa_register 6
	movq	%rdi, -8(%rbp)
	movq	-8(%rbp), %rax
	popq	%rbp
	.cfi_def_cfa 7, 8
	ret
	.cfi_endproc
.LFE1022:
	.size	_ZNSt12_Vector_baseIiSaIiEE19_M_get_Tp_allocatorEv, .-_ZNSt12_Vector_baseIiSaIiEE19_M_get_Tp_allocatorEv
	.section	.text._ZSt8_DestroyIPiiEvT_S1_RSaIT0_E,"axG",@progbits,_ZSt8_DestroyIPiiEvT_S1_RSaIT0_E,comdat
	.weak	_ZSt8_DestroyIPiiEvT_S1_RSaIT0_E
	.type	_ZSt8_DestroyIPiiEvT_S1_RSaIT0_E, @function
_ZSt8_DestroyIPiiEvT_S1_RSaIT0_E:
.LFB1023:
	.cfi_startproc
	pushq	%rbp
	.cfi_def_cfa_offset 16
	.cfi_offset 6, -16
	movq	%rsp, %rbp
	.cfi_def_cfa_register 6
	subq	$32, %rsp
	movq	%rdi, -8(%rbp)
	movq	%rsi, -16(%rbp)
	movq	%rdx, -24(%rbp)
	movq	-16(%rbp), %rdx
	movq	-8(%rbp), %rax
	movq	%rdx, %rsi
	movq	%rax, %rdi
	call	_ZSt8_DestroyIPiEvT_S1_
	nop
	leave
	.cfi_def_cfa 7, 8
	ret
	.cfi_endproc
.LFE1023:
	.size	_ZSt8_DestroyIPiiEvT_S1_RSaIT0_E, .-_ZSt8_DestroyIPiiEvT_S1_RSaIT0_E
	.section	.text._ZNSt12_Vector_baseIiSaIiEE12_Vector_implC2ERKS0_,"axG",@progbits,_ZNSt12_Vector_baseIiSaIiEE12_Vector_implC5ERKS0_,comdat
	.align 2
	.weak	_ZNSt12_Vector_baseIiSaIiEE12_Vector_implC2ERKS0_
	.type	_ZNSt12_Vector_baseIiSaIiEE12_Vector_implC2ERKS0_, @function
_ZNSt12_Vector_baseIiSaIiEE12_Vector_implC2ERKS0_:
.LFB1026:
	.cfi_startproc
	pushq	%rbp
	.cfi_def_cfa_offset 16
	.cfi_offset 6, -16
	movq	%rsp, %rbp
	.cfi_def_cfa_register 6
	subq	$16, %rsp
	movq	%rdi, -8(%rbp)
	movq	%rsi, -16(%rbp)
	movq	-16(%rbp), %rdx
	movq	-8(%rbp), %rax
	movq	%rdx, %rsi
	movq	%rax, %rdi
	call	_ZNSaIiEC2ERKS_
	movq	-8(%rbp), %rax
	movq	$0, (%rax)
	movq	-8(%rbp), %rax
	movq	$0, 8(%rax)
	movq	-8(%rbp), %rax
	movq	$0, 16(%rax)
	nop
	leave
	.cfi_def_cfa 7, 8
	ret
	.cfi_endproc
.LFE1026:
	.size	_ZNSt12_Vector_baseIiSaIiEE12_Vector_implC2ERKS0_, .-_ZNSt12_Vector_baseIiSaIiEE12_Vector_implC2ERKS0_
	.weak	_ZNSt12_Vector_baseIiSaIiEE12_Vector_implC1ERKS0_
	.set	_ZNSt12_Vector_baseIiSaIiEE12_Vector_implC1ERKS0_,_ZNSt12_Vector_baseIiSaIiEE12_Vector_implC2ERKS0_
	.section	.text._ZNSt12_Vector_baseIiSaIiEE17_M_create_storageEm,"axG",@progbits,_ZNSt12_Vector_baseIiSaIiEE17_M_create_storageEm,comdat
	.align 2
	.weak	_ZNSt12_Vector_baseIiSaIiEE17_M_create_storageEm
	.type	_ZNSt12_Vector_baseIiSaIiEE17_M_create_storageEm, @function
_ZNSt12_Vector_baseIiSaIiEE17_M_create_storageEm:
.LFB1028:
	.cfi_startproc
	pushq	%rbp
	.cfi_def_cfa_offset 16
	.cfi_offset 6, -16
	movq	%rsp, %rbp
	.cfi_def_cfa_register 6
	subq	$16, %rsp
	movq	%rdi, -8(%rbp)
	movq	%rsi, -16(%rbp)
	movq	-16(%rbp), %rdx
	movq	-8(%rbp), %rax
	movq	%rdx, %rsi
	movq	%rax, %rdi
	call	_ZNSt12_Vector_baseIiSaIiEE11_M_allocateEm
	movq	%rax, %rdx
	movq	-8(%rbp), %rax
	movq	%rdx, (%rax)
	movq	-8(%rbp), %rax
	movq	(%rax), %rdx
	movq	-8(%rbp), %rax
	movq	%rdx, 8(%rax)
	movq	-8(%rbp), %rax
	movq	(%rax), %rax
	movq	-16(%rbp), %rdx
	salq	$2, %rdx
	addq	%rax, %rdx
	movq	-8(%rbp), %rax
	movq	%rdx, 16(%rax)
	nop
	leave
	.cfi_def_cfa 7, 8
	ret
	.cfi_endproc
.LFE1028:
	.size	_ZNSt12_Vector_baseIiSaIiEE17_M_create_storageEm, .-_ZNSt12_Vector_baseIiSaIiEE17_M_create_storageEm
	.section	.text._ZNSt12_Vector_baseIiSaIiEE13_M_deallocateEPim,"axG",@progbits,_ZNSt12_Vector_baseIiSaIiEE13_M_deallocateEPim,comdat
	.align 2
	.weak	_ZNSt12_Vector_baseIiSaIiEE13_M_deallocateEPim
	.type	_ZNSt12_Vector_baseIiSaIiEE13_M_deallocateEPim, @function
_ZNSt12_Vector_baseIiSaIiEE13_M_deallocateEPim:
.LFB1029:
	.cfi_startproc
	pushq	%rbp
	.cfi_def_cfa_offset 16
	.cfi_offset 6, -16
	movq	%rsp, %rbp
	.cfi_def_cfa_register 6
	subq	$32, %rsp
	movq	%rdi, -8(%rbp)
	movq	%rsi, -16(%rbp)
	movq	%rdx, -24(%rbp)
	cmpq	$0, -16(%rbp)
	je	.L347
	movq	-8(%rbp), %rax
	movq	-24(%rbp), %rdx
	movq	-16(%rbp), %rcx
	movq	%rcx, %rsi
	movq	%rax, %rdi
	call	_ZN9__gnu_cxx14__alloc_traitsISaIiEE10deallocateERS1_Pim
.L347:
	nop
	leave
	.cfi_def_cfa 7, 8
	ret
	.cfi_endproc
.LFE1029:
	.size	_ZNSt12_Vector_baseIiSaIiEE13_M_deallocateEPim, .-_ZNSt12_Vector_baseIiSaIiEE13_M_deallocateEPim
	.section	.text._ZSt24__uninitialized_fill_n_aIPimiiET_S1_T0_RKT1_RSaIT2_E,"axG",@progbits,_ZSt24__uninitialized_fill_n_aIPimiiET_S1_T0_RKT1_RSaIT2_E,comdat
	.weak	_ZSt24__uninitialized_fill_n_aIPimiiET_S1_T0_RKT1_RSaIT2_E
	.type	_ZSt24__uninitialized_fill_n_aIPimiiET_S1_T0_RKT1_RSaIT2_E, @function
_ZSt24__uninitialized_fill_n_aIPimiiET_S1_T0_RKT1_RSaIT2_E:
.LFB1030:
	.cfi_startproc
	pushq	%rbp
	.cfi_def_cfa_offset 16
	.cfi_offset 6, -16
	movq	%rsp, %rbp
	.cfi_def_cfa_register 6
	subq	$32, %rsp
	movq	%rdi, -8(%rbp)
	movq	%rsi, -16(%rbp)
	movq	%rdx, -24(%rbp)
	movq	%rcx, -32(%rbp)
	movq	-24(%rbp), %rdx
	movq	-16(%rbp), %rcx
	movq	-8(%rbp), %rax
	movq	%rcx, %rsi
	movq	%rax, %rdi
	call	_ZSt20uninitialized_fill_nIPimiET_S1_T0_RKT1_
	leave
	.cfi_def_cfa 7, 8
	ret
	.cfi_endproc
.LFE1030:
	.size	_ZSt24__uninitialized_fill_n_aIPimiiET_S1_T0_RKT1_RSaIT2_E, .-_ZSt24__uninitialized_fill_n_aIPimiiET_S1_T0_RKT1_RSaIT2_E
	.section	.text._ZSt8_DestroyIPiEvT_S1_,"axG",@progbits,_ZSt8_DestroyIPiEvT_S1_,comdat
	.weak	_ZSt8_DestroyIPiEvT_S1_
	.type	_ZSt8_DestroyIPiEvT_S1_, @function
_ZSt8_DestroyIPiEvT_S1_:
.LFB1031:
	.cfi_startproc
	pushq	%rbp
	.cfi_def_cfa_offset 16
	.cfi_offset 6, -16
	movq	%rsp, %rbp
	.cfi_def_cfa_register 6
	subq	$16, %rsp
	movq	%rdi, -8(%rbp)
	movq	%rsi, -16(%rbp)
	movq	-16(%rbp), %rdx
	movq	-8(%rbp), %rax
	movq	%rdx, %rsi
	movq	%rax, %rdi
	call	_ZNSt12_Destroy_auxILb1EE9__destroyIPiEEvT_S3_
	nop
	leave
	.cfi_def_cfa 7, 8
	ret
	.cfi_endproc
.LFE1031:
	.size	_ZSt8_DestroyIPiEvT_S1_, .-_ZSt8_DestroyIPiEvT_S1_
	.section	.text._ZNSaIiEC2ERKS_,"axG",@progbits,_ZNSaIiEC5ERKS_,comdat
	.align 2
	.weak	_ZNSaIiEC2ERKS_
	.type	_ZNSaIiEC2ERKS_, @function
_ZNSaIiEC2ERKS_:
.LFB1033:
	.cfi_startproc
	pushq	%rbp
	.cfi_def_cfa_offset 16
	.cfi_offset 6, -16
	movq	%rsp, %rbp
	.cfi_def_cfa_register 6
	subq	$16, %rsp
	movq	%rdi, -8(%rbp)
	movq	%rsi, -16(%rbp)
	movq	-16(%rbp), %rdx
	movq	-8(%rbp), %rax
	movq	%rdx, %rsi
	movq	%rax, %rdi
	call	_ZN9__gnu_cxx13new_allocatorIiEC2ERKS1_
	nop
	leave
	.cfi_def_cfa 7, 8
	ret
	.cfi_endproc
.LFE1033:
	.size	_ZNSaIiEC2ERKS_, .-_ZNSaIiEC2ERKS_
	.weak	_ZNSaIiEC1ERKS_
	.set	_ZNSaIiEC1ERKS_,_ZNSaIiEC2ERKS_
	.section	.text._ZNSt12_Vector_baseIiSaIiEE11_M_allocateEm,"axG",@progbits,_ZNSt12_Vector_baseIiSaIiEE11_M_allocateEm,comdat
	.align 2
	.weak	_ZNSt12_Vector_baseIiSaIiEE11_M_allocateEm
	.type	_ZNSt12_Vector_baseIiSaIiEE11_M_allocateEm, @function
_ZNSt12_Vector_baseIiSaIiEE11_M_allocateEm:
.LFB1035:
	.cfi_startproc
	pushq	%rbp
	.cfi_def_cfa_offset 16
	.cfi_offset 6, -16
	movq	%rsp, %rbp
	.cfi_def_cfa_register 6
	subq	$16, %rsp
	movq	%rdi, -8(%rbp)
	movq	%rsi, -16(%rbp)
	cmpq	$0, -16(%rbp)
	je	.L353
	movq	-8(%rbp), %rax
	movq	-16(%rbp), %rdx
	movq	%rdx, %rsi
	movq	%rax, %rdi
	call	_ZN9__gnu_cxx14__alloc_traitsISaIiEE8allocateERS1_m
	jmp	.L355
.L353:
	movl	$0, %eax
.L355:
	leave
	.cfi_def_cfa 7, 8
	ret
	.cfi_endproc
.LFE1035:
	.size	_ZNSt12_Vector_baseIiSaIiEE11_M_allocateEm, .-_ZNSt12_Vector_baseIiSaIiEE11_M_allocateEm
	.section	.text._ZN9__gnu_cxx14__alloc_traitsISaIiEE10deallocateERS1_Pim,"axG",@progbits,_ZN9__gnu_cxx14__alloc_traitsISaIiEE10deallocateERS1_Pim,comdat
	.weak	_ZN9__gnu_cxx14__alloc_traitsISaIiEE10deallocateERS1_Pim
	.type	_ZN9__gnu_cxx14__alloc_traitsISaIiEE10deallocateERS1_Pim, @function
_ZN9__gnu_cxx14__alloc_traitsISaIiEE10deallocateERS1_Pim:
.LFB1036:
	.cfi_startproc
	pushq	%rbp
	.cfi_def_cfa_offset 16
	.cfi_offset 6, -16
	movq	%rsp, %rbp
	.cfi_def_cfa_register 6
	subq	$32, %rsp
	movq	%rdi, -8(%rbp)
	movq	%rsi, -16(%rbp)
	movq	%rdx, -24(%rbp)
	movq	-24(%rbp), %rdx
	movq	-16(%rbp), %rcx
	movq	-8(%rbp), %rax
	movq	%rcx, %rsi
	movq	%rax, %rdi
	call	_ZN9__gnu_cxx13new_allocatorIiE10deallocateEPim
	nop
	leave
	.cfi_def_cfa 7, 8
	ret
	.cfi_endproc
.LFE1036:
	.size	_ZN9__gnu_cxx14__alloc_traitsISaIiEE10deallocateERS1_Pim, .-_ZN9__gnu_cxx14__alloc_traitsISaIiEE10deallocateERS1_Pim
	.section	.text._ZSt20uninitialized_fill_nIPimiET_S1_T0_RKT1_,"axG",@progbits,_ZSt20uninitialized_fill_nIPimiET_S1_T0_RKT1_,comdat
	.weak	_ZSt20uninitialized_fill_nIPimiET_S1_T0_RKT1_
	.type	_ZSt20uninitialized_fill_nIPimiET_S1_T0_RKT1_, @function
_ZSt20uninitialized_fill_nIPimiET_S1_T0_RKT1_:
.LFB1037:
	.cfi_startproc
	pushq	%rbp
	.cfi_def_cfa_offset 16
	.cfi_offset 6, -16
	movq	%rsp, %rbp
	.cfi_def_cfa_register 6
	subq	$48, %rsp
	movq	%rdi, -24(%rbp)
	movq	%rsi, -32(%rbp)
	movq	%rdx, -40(%rbp)
	movb	$1, -1(%rbp)
	movq	-40(%rbp), %rdx
	movq	-32(%rbp), %rcx
	movq	-24(%rbp), %rax
	movq	%rcx, %rsi
	movq	%rax, %rdi
	call	_ZNSt22__uninitialized_fill_nILb1EE15__uninit_fill_nIPimiEET_S3_T0_RKT1_
	leave
	.cfi_def_cfa 7, 8
	ret
	.cfi_endproc
.LFE1037:
	.size	_ZSt20uninitialized_fill_nIPimiET_S1_T0_RKT1_, .-_ZSt20uninitialized_fill_nIPimiET_S1_T0_RKT1_
	.section	.text._ZNSt12_Destroy_auxILb1EE9__destroyIPiEEvT_S3_,"axG",@progbits,_ZNSt12_Destroy_auxILb1EE9__destroyIPiEEvT_S3_,comdat
	.weak	_ZNSt12_Destroy_auxILb1EE9__destroyIPiEEvT_S3_
	.type	_ZNSt12_Destroy_auxILb1EE9__destroyIPiEEvT_S3_, @function
_ZNSt12_Destroy_auxILb1EE9__destroyIPiEEvT_S3_:
.LFB1038:
	.cfi_startproc
	pushq	%rbp
	.cfi_def_cfa_offset 16
	.cfi_offset 6, -16
	movq	%rsp, %rbp
	.cfi_def_cfa_register 6
	movq	%rdi, -8(%rbp)
	movq	%rsi, -16(%rbp)
	nop
	popq	%rbp
	.cfi_def_cfa 7, 8
	ret
	.cfi_endproc
.LFE1038:
	.size	_ZNSt12_Destroy_auxILb1EE9__destroyIPiEEvT_S3_, .-_ZNSt12_Destroy_auxILb1EE9__destroyIPiEEvT_S3_
	.section	.text._ZN9__gnu_cxx13new_allocatorIiEC2ERKS1_,"axG",@progbits,_ZN9__gnu_cxx13new_allocatorIiEC5ERKS1_,comdat
	.align 2
	.weak	_ZN9__gnu_cxx13new_allocatorIiEC2ERKS1_
	.type	_ZN9__gnu_cxx13new_allocatorIiEC2ERKS1_, @function
_ZN9__gnu_cxx13new_allocatorIiEC2ERKS1_:
.LFB1040:
	.cfi_startproc
	pushq	%rbp
	.cfi_def_cfa_offset 16
	.cfi_offset 6, -16
	movq	%rsp, %rbp
	.cfi_def_cfa_register 6
	movq	%rdi, -8(%rbp)
	movq	%rsi, -16(%rbp)
	nop
	popq	%rbp
	.cfi_def_cfa 7, 8
	ret
	.cfi_endproc
.LFE1040:
	.size	_ZN9__gnu_cxx13new_allocatorIiEC2ERKS1_, .-_ZN9__gnu_cxx13new_allocatorIiEC2ERKS1_
	.weak	_ZN9__gnu_cxx13new_allocatorIiEC1ERKS1_
	.set	_ZN9__gnu_cxx13new_allocatorIiEC1ERKS1_,_ZN9__gnu_cxx13new_allocatorIiEC2ERKS1_
	.section	.text._ZN9__gnu_cxx14__alloc_traitsISaIiEE8allocateERS1_m,"axG",@progbits,_ZN9__gnu_cxx14__alloc_traitsISaIiEE8allocateERS1_m,comdat
	.weak	_ZN9__gnu_cxx14__alloc_traitsISaIiEE8allocateERS1_m
	.type	_ZN9__gnu_cxx14__alloc_traitsISaIiEE8allocateERS1_m, @function
_ZN9__gnu_cxx14__alloc_traitsISaIiEE8allocateERS1_m:
.LFB1042:
	.cfi_startproc
	pushq	%rbp
	.cfi_def_cfa_offset 16
	.cfi_offset 6, -16
	movq	%rsp, %rbp
	.cfi_def_cfa_register 6
	subq	$16, %rsp
	movq	%rdi, -8(%rbp)
	movq	%rsi, -16(%rbp)
	movq	-16(%rbp), %rcx
	movq	-8(%rbp), %rax
	movl	$0, %edx
	movq	%rcx, %rsi
	movq	%rax, %rdi
	call	_ZN9__gnu_cxx13new_allocatorIiE8allocateEmPKv
	leave
	.cfi_def_cfa 7, 8
	ret
	.cfi_endproc
.LFE1042:
	.size	_ZN9__gnu_cxx14__alloc_traitsISaIiEE8allocateERS1_m, .-_ZN9__gnu_cxx14__alloc_traitsISaIiEE8allocateERS1_m
	.section	.text._ZN9__gnu_cxx13new_allocatorIiE10deallocateEPim,"axG",@progbits,_ZN9__gnu_cxx13new_allocatorIiE10deallocateEPim,comdat
	.align 2
	.weak	_ZN9__gnu_cxx13new_allocatorIiE10deallocateEPim
	.type	_ZN9__gnu_cxx13new_allocatorIiE10deallocateEPim, @function
_ZN9__gnu_cxx13new_allocatorIiE10deallocateEPim:
.LFB1043:
	.cfi_startproc
	pushq	%rbp
	.cfi_def_cfa_offset 16
	.cfi_offset 6, -16
	movq	%rsp, %rbp
	.cfi_def_cfa_register 6
	subq	$32, %rsp
	movq	%rdi, -8(%rbp)
	movq	%rsi, -16(%rbp)
	movq	%rdx, -24(%rbp)
	movq	-16(%rbp), %rax
	movq	%rax, %rdi
	call	_ZdlPv
	nop
	leave
	.cfi_def_cfa 7, 8
	ret
	.cfi_endproc
.LFE1043:
	.size	_ZN9__gnu_cxx13new_allocatorIiE10deallocateEPim, .-_ZN9__gnu_cxx13new_allocatorIiE10deallocateEPim
	.section	.text._ZNSt22__uninitialized_fill_nILb1EE15__uninit_fill_nIPimiEET_S3_T0_RKT1_,"axG",@progbits,_ZNSt22__uninitialized_fill_nILb1EE15__uninit_fill_nIPimiEET_S3_T0_RKT1_,comdat
	.weak	_ZNSt22__uninitialized_fill_nILb1EE15__uninit_fill_nIPimiEET_S3_T0_RKT1_
	.type	_ZNSt22__uninitialized_fill_nILb1EE15__uninit_fill_nIPimiEET_S3_T0_RKT1_, @function
_ZNSt22__uninitialized_fill_nILb1EE15__uninit_fill_nIPimiEET_S3_T0_RKT1_:
.LFB1044:
	.cfi_startproc
	pushq	%rbp
	.cfi_def_cfa_offset 16
	.cfi_offset 6, -16
	movq	%rsp, %rbp
	.cfi_def_cfa_register 6
	subq	$32, %rsp
	movq	%rdi, -8(%rbp)
	movq	%rsi, -16(%rbp)
	movq	%rdx, -24(%rbp)
	movq	-24(%rbp), %rdx
	movq	-16(%rbp), %rcx
	movq	-8(%rbp), %rax
	movq	%rcx, %rsi
	movq	%rax, %rdi
	call	_ZSt6fill_nIPimiET_S1_T0_RKT1_
	leave
	.cfi_def_cfa 7, 8
	ret
	.cfi_endproc
.LFE1044:
	.size	_ZNSt22__uninitialized_fill_nILb1EE15__uninit_fill_nIPimiEET_S3_T0_RKT1_, .-_ZNSt22__uninitialized_fill_nILb1EE15__uninit_fill_nIPimiEET_S3_T0_RKT1_
	.section	.text._ZN9__gnu_cxx13new_allocatorIiE8allocateEmPKv,"axG",@progbits,_ZN9__gnu_cxx13new_allocatorIiE8allocateEmPKv,comdat
	.align 2
	.weak	_ZN9__gnu_cxx13new_allocatorIiE8allocateEmPKv
	.type	_ZN9__gnu_cxx13new_allocatorIiE8allocateEmPKv, @function
_ZN9__gnu_cxx13new_allocatorIiE8allocateEmPKv:
.LFB1045:
	.cfi_startproc
	pushq	%rbp
	.cfi_def_cfa_offset 16
	.cfi_offset 6, -16
	movq	%rsp, %rbp
	.cfi_def_cfa_register 6
	subq	$32, %rsp
	movq	%rdi, -8(%rbp)
	movq	%rsi, -16(%rbp)
	movq	%rdx, -24(%rbp)
	movq	-8(%rbp), %rax
	movq	%rax, %rdi
	call	_ZNK9__gnu_cxx13new_allocatorIiE8max_sizeEv
	cmpq	-16(%rbp), %rax
	setb	%al
	testb	%al, %al
	je	.L367
	call	_ZSt17__throw_bad_allocv
.L367:
	movq	-16(%rbp), %rax
	salq	$2, %rax
	movq	%rax, %rdi
	call	_Znwm
	leave
	.cfi_def_cfa 7, 8
	ret
	.cfi_endproc
.LFE1045:
	.size	_ZN9__gnu_cxx13new_allocatorIiE8allocateEmPKv, .-_ZN9__gnu_cxx13new_allocatorIiE8allocateEmPKv
	.section	.text._ZSt6fill_nIPimiET_S1_T0_RKT1_,"axG",@progbits,_ZSt6fill_nIPimiET_S1_T0_RKT1_,comdat
	.weak	_ZSt6fill_nIPimiET_S1_T0_RKT1_
	.type	_ZSt6fill_nIPimiET_S1_T0_RKT1_, @function
_ZSt6fill_nIPimiET_S1_T0_RKT1_:
.LFB1046:
	.cfi_startproc
	pushq	%rbp
	.cfi_def_cfa_offset 16
	.cfi_offset 6, -16
	movq	%rsp, %rbp
	.cfi_def_cfa_register 6
	subq	$32, %rsp
	movq	%rdi, -8(%rbp)
	movq	%rsi, -16(%rbp)
	movq	%rdx, -24(%rbp)
	movq	-8(%rbp), %rax
	movq	%rax, %rdi
	call	_ZSt12__niter_baseIPiENSt11_Niter_baseIT_E13iterator_typeES2_
	movq	%rax, %rcx
	movq	-24(%rbp), %rdx
	movq	-16(%rbp), %rax
	movq	%rax, %rsi
	movq	%rcx, %rdi
	call	_ZSt10__fill_n_aIPimiEN9__gnu_cxx11__enable_ifIXsrSt11__is_scalarIT1_E7__valueET_E6__typeES6_T0_RKS4_
	leave
	.cfi_def_cfa 7, 8
	ret
	.cfi_endproc
.LFE1046:
	.size	_ZSt6fill_nIPimiET_S1_T0_RKT1_, .-_ZSt6fill_nIPimiET_S1_T0_RKT1_
	.section	.text._ZNK9__gnu_cxx13new_allocatorIiE8max_sizeEv,"axG",@progbits,_ZNK9__gnu_cxx13new_allocatorIiE8max_sizeEv,comdat
	.align 2
	.weak	_ZNK9__gnu_cxx13new_allocatorIiE8max_sizeEv
	.type	_ZNK9__gnu_cxx13new_allocatorIiE8max_sizeEv, @function
_ZNK9__gnu_cxx13new_allocatorIiE8max_sizeEv:
.LFB1047:
	.cfi_startproc
	pushq	%rbp
	.cfi_def_cfa_offset 16
	.cfi_offset 6, -16
	movq	%rsp, %rbp
	.cfi_def_cfa_register 6
	movq	%rdi, -8(%rbp)
	movabsq	$4611686018427387903, %rax
	popq	%rbp
	.cfi_def_cfa 7, 8
	ret
	.cfi_endproc
.LFE1047:
	.size	_ZNK9__gnu_cxx13new_allocatorIiE8max_sizeEv, .-_ZNK9__gnu_cxx13new_allocatorIiE8max_sizeEv
	.section	.text._ZSt12__niter_baseIPiENSt11_Niter_baseIT_E13iterator_typeES2_,"axG",@progbits,_ZSt12__niter_baseIPiENSt11_Niter_baseIT_E13iterator_typeES2_,comdat
	.weak	_ZSt12__niter_baseIPiENSt11_Niter_baseIT_E13iterator_typeES2_
	.type	_ZSt12__niter_baseIPiENSt11_Niter_baseIT_E13iterator_typeES2_, @function
_ZSt12__niter_baseIPiENSt11_Niter_baseIT_E13iterator_typeES2_:
.LFB1048:
	.cfi_startproc
	pushq	%rbp
	.cfi_def_cfa_offset 16
	.cfi_offset 6, -16
	movq	%rsp, %rbp
	.cfi_def_cfa_register 6
	subq	$16, %rsp
	movq	%rdi, -8(%rbp)
	movq	-8(%rbp), %rax
	movq	%rax, %rdi
	call	_ZNSt10_Iter_baseIPiLb0EE7_S_baseES0_
	leave
	.cfi_def_cfa 7, 8
	ret
	.cfi_endproc
.LFE1048:
	.size	_ZSt12__niter_baseIPiENSt11_Niter_baseIT_E13iterator_typeES2_, .-_ZSt12__niter_baseIPiENSt11_Niter_baseIT_E13iterator_typeES2_
	.section	.text._ZSt10__fill_n_aIPimiEN9__gnu_cxx11__enable_ifIXsrSt11__is_scalarIT1_E7__valueET_E6__typeES6_T0_RKS4_,"axG",@progbits,_ZSt10__fill_n_aIPimiEN9__gnu_cxx11__enable_ifIXsrSt11__is_scalarIT1_E7__valueET_E6__typeES6_T0_RKS4_,comdat
	.weak	_ZSt10__fill_n_aIPimiEN9__gnu_cxx11__enable_ifIXsrSt11__is_scalarIT1_E7__valueET_E6__typeES6_T0_RKS4_
	.type	_ZSt10__fill_n_aIPimiEN9__gnu_cxx11__enable_ifIXsrSt11__is_scalarIT1_E7__valueET_E6__typeES6_T0_RKS4_, @function
_ZSt10__fill_n_aIPimiEN9__gnu_cxx11__enable_ifIXsrSt11__is_scalarIT1_E7__valueET_E6__typeES6_T0_RKS4_:
.LFB1049:
	.cfi_startproc
	pushq	%rbp
	.cfi_def_cfa_offset 16
	.cfi_offset 6, -16
	movq	%rsp, %rbp
	.cfi_def_cfa_register 6
	movq	%rdi, -24(%rbp)
	movq	%rsi, -32(%rbp)
	movq	%rdx, -40(%rbp)
	movq	-40(%rbp), %rax
	movl	(%rax), %eax
	movl	%eax, -12(%rbp)
	movq	-32(%rbp), %rax
	movq	%rax, -8(%rbp)
.L377:
	cmpq	$0, -8(%rbp)
	je	.L376
	movq	-24(%rbp), %rax
	movl	-12(%rbp), %edx
	movl	%edx, (%rax)
	subq	$1, -8(%rbp)
	addq	$4, -24(%rbp)
	jmp	.L377
.L376:
	movq	-24(%rbp), %rax
	popq	%rbp
	.cfi_def_cfa 7, 8
	ret
	.cfi_endproc
.LFE1049:
	.size	_ZSt10__fill_n_aIPimiEN9__gnu_cxx11__enable_ifIXsrSt11__is_scalarIT1_E7__valueET_E6__typeES6_T0_RKS4_, .-_ZSt10__fill_n_aIPimiEN9__gnu_cxx11__enable_ifIXsrSt11__is_scalarIT1_E7__valueET_E6__typeES6_T0_RKS4_
	.section	.text._ZNSt10_Iter_baseIPiLb0EE7_S_baseES0_,"axG",@progbits,_ZNSt10_Iter_baseIPiLb0EE7_S_baseES0_,comdat
	.weak	_ZNSt10_Iter_baseIPiLb0EE7_S_baseES0_
	.type	_ZNSt10_Iter_baseIPiLb0EE7_S_baseES0_, @function
_ZNSt10_Iter_baseIPiLb0EE7_S_baseES0_:
.LFB1050:
	.cfi_startproc
	pushq	%rbp
	.cfi_def_cfa_offset 16
	.cfi_offset 6, -16
	movq	%rsp, %rbp
	.cfi_def_cfa_register 6
	movq	%rdi, -8(%rbp)
	movq	-8(%rbp), %rax
	popq	%rbp
	.cfi_def_cfa 7, 8
	ret
	.cfi_endproc
.LFE1050:
	.size	_ZNSt10_Iter_baseIPiLb0EE7_S_baseES0_, .-_ZNSt10_Iter_baseIPiLb0EE7_S_baseES0_
	.text
	.type	_Z41__static_initialization_and_destruction_0ii, @function
_Z41__static_initialization_and_destruction_0ii:
.LFB1051:
	.cfi_startproc
	pushq	%rbp
	.cfi_def_cfa_offset 16
	.cfi_offset 6, -16
	movq	%rsp, %rbp
	.cfi_def_cfa_register 6
	subq	$16, %rsp
	movl	%edi, -4(%rbp)
	movl	%esi, -8(%rbp)
	cmpl	$1, -4(%rbp)
	jne	.L383
	cmpl	$65535, -8(%rbp)
	jne	.L383
	call	_ZN12_GLOBAL__N_114init_table_fixEv
	movq	%rax, _ZN12_GLOBAL__N_1L9table_fixE(%rip)
	call	_ZN12_GLOBAL__N_116init_table_unfixEv
	movq	%rax, _ZN12_GLOBAL__N_1L11table_unfixE(%rip)
.L383:
	nop
	leave
	.cfi_def_cfa 7, 8
	ret
	.cfi_endproc
.LFE1051:
	.size	_Z41__static_initialization_and_destruction_0ii, .-_Z41__static_initialization_and_destruction_0ii
	.type	_GLOBAL__sub_I__ZN6Render5beginEv, @function
_GLOBAL__sub_I__ZN6Render5beginEv:
.LFB1052:
	.cfi_startproc
	pushq	%rbp
	.cfi_def_cfa_offset 16
	.cfi_offset 6, -16
	movq	%rsp, %rbp
	.cfi_def_cfa_register 6
	movl	$65535, %esi
	movl	$1, %edi
	call	_Z41__static_initialization_and_destruction_0ii
	popq	%rbp
	.cfi_def_cfa 7, 8
	ret
	.cfi_endproc
.LFE1052:
	.size	_GLOBAL__sub_I__ZN6Render5beginEv, .-_GLOBAL__sub_I__ZN6Render5beginEv
	.section	.init_array,"aw"
	.align 8
	.quad	_GLOBAL__sub_I__ZN6Render5beginEv
	.section	.rodata
	.align 8
.LC0:
	.long	0
	.long	1081073664
	.align 8
.LC1:
	.long	2576980378
	.long	1073846681
	.align 8
.LC2:
	.long	0
	.long	1089470432
	.align 8
.LC3:
	.long	3514064151
	.long	1071454021
	.align 4
.LC4:
	.long	1132396544
	.align 16
.LC5:
	.long	0
	.long	-2147483648
	.long	0
	.long	0
	.ident	"GCC: (Ubuntu 5.4.0-6ubuntu1~16.04.12) 5.4.0 20160609"
	.section	.note.GNU-stack,"",@progbits
